Archive member included because of file (symbol)

c:/chibistudio/tools/gnu tools arm embedded/4.7 2013q2/bin/../lib/gcc/arm-none-eabi/4.7.4/../../../../arm-none-eabi/lib/armv7e-m\libm.a(lib_a-s_fpclassify.o)
                              build/obj/chprintf.o (__fpclassifyd)
c:/chibistudio/tools/gnu tools arm embedded/4.7 2013q2/bin/../lib/gcc/arm-none-eabi/4.7.4/../../../../arm-none-eabi/lib/armv7e-m\libm.a(lib_a-s_modf.o)
                              build/obj/nmea.o (modf)
c:/chibistudio/tools/gnu tools arm embedded/4.7 2013q2/bin/../lib/gcc/arm-none-eabi/4.7.4/../../../../arm-none-eabi/lib/armv7e-m\libm.a(lib_a-s_round.o)
                              build/obj/nmea.o (round)
c:/chibistudio/tools/gnu tools arm embedded/4.7 2013q2/bin/../lib/gcc/arm-none-eabi/4.7.4/../../../../arm-none-eabi/lib/armv7e-m\libm.a(lib_a-w_log.o)
                              build/obj/thermistors.o (log)
c:/chibistudio/tools/gnu tools arm embedded/4.7 2013q2/bin/../lib/gcc/arm-none-eabi/4.7.4/../../../../arm-none-eabi/lib/armv7e-m\libm.a(lib_a-w_pow.o)
                              build/obj/malfunction_indicator.o (pow)
c:/chibistudio/tools/gnu tools arm embedded/4.7 2013q2/bin/../lib/gcc/arm-none-eabi/4.7.4/../../../../arm-none-eabi/lib/armv7e-m\libm.a(lib_a-e_log.o)
                              c:/chibistudio/tools/gnu tools arm embedded/4.7 2013q2/bin/../lib/gcc/arm-none-eabi/4.7.4/../../../../arm-none-eabi/lib/armv7e-m\libm.a(lib_a-w_log.o) (__ieee754_log)
c:/chibistudio/tools/gnu tools arm embedded/4.7 2013q2/bin/../lib/gcc/arm-none-eabi/4.7.4/../../../../arm-none-eabi/lib/armv7e-m\libm.a(lib_a-e_pow.o)
                              c:/chibistudio/tools/gnu tools arm embedded/4.7 2013q2/bin/../lib/gcc/arm-none-eabi/4.7.4/../../../../arm-none-eabi/lib/armv7e-m\libm.a(lib_a-w_pow.o) (__ieee754_pow)
c:/chibistudio/tools/gnu tools arm embedded/4.7 2013q2/bin/../lib/gcc/arm-none-eabi/4.7.4/../../../../arm-none-eabi/lib/armv7e-m\libm.a(lib_a-e_sqrt.o)
                              c:/chibistudio/tools/gnu tools arm embedded/4.7 2013q2/bin/../lib/gcc/arm-none-eabi/4.7.4/../../../../arm-none-eabi/lib/armv7e-m\libm.a(lib_a-e_pow.o) (__ieee754_sqrt)
c:/chibistudio/tools/gnu tools arm embedded/4.7 2013q2/bin/../lib/gcc/arm-none-eabi/4.7.4/../../../../arm-none-eabi/lib/armv7e-m\libm.a(lib_a-s_fabs.o)
                              c:/chibistudio/tools/gnu tools arm embedded/4.7 2013q2/bin/../lib/gcc/arm-none-eabi/4.7.4/../../../../arm-none-eabi/lib/armv7e-m\libm.a(lib_a-e_pow.o) (fabs)
c:/chibistudio/tools/gnu tools arm embedded/4.7 2013q2/bin/../lib/gcc/arm-none-eabi/4.7.4/../../../../arm-none-eabi/lib/armv7e-m\libm.a(lib_a-s_finite.o)
                              c:/chibistudio/tools/gnu tools arm embedded/4.7 2013q2/bin/../lib/gcc/arm-none-eabi/4.7.4/../../../../arm-none-eabi/lib/armv7e-m\libm.a(lib_a-w_pow.o) (finite)
c:/chibistudio/tools/gnu tools arm embedded/4.7 2013q2/bin/../lib/gcc/arm-none-eabi/4.7.4/../../../../arm-none-eabi/lib/armv7e-m\libm.a(lib_a-s_lib_ver.o)
                              c:/chibistudio/tools/gnu tools arm embedded/4.7 2013q2/bin/../lib/gcc/arm-none-eabi/4.7.4/../../../../arm-none-eabi/lib/armv7e-m\libm.a(lib_a-w_log.o) (__fdlib_version)
c:/chibistudio/tools/gnu tools arm embedded/4.7 2013q2/bin/../lib/gcc/arm-none-eabi/4.7.4/../../../../arm-none-eabi/lib/armv7e-m\libm.a(lib_a-s_matherr.o)
                              c:/chibistudio/tools/gnu tools arm embedded/4.7 2013q2/bin/../lib/gcc/arm-none-eabi/4.7.4/../../../../arm-none-eabi/lib/armv7e-m\libm.a(lib_a-w_log.o) (matherr)
c:/chibistudio/tools/gnu tools arm embedded/4.7 2013q2/bin/../lib/gcc/arm-none-eabi/4.7.4/../../../../arm-none-eabi/lib/armv7e-m\libm.a(lib_a-s_nan.o)
                              c:/chibistudio/tools/gnu tools arm embedded/4.7 2013q2/bin/../lib/gcc/arm-none-eabi/4.7.4/../../../../arm-none-eabi/lib/armv7e-m\libm.a(lib_a-w_log.o) (nan)
c:/chibistudio/tools/gnu tools arm embedded/4.7 2013q2/bin/../lib/gcc/arm-none-eabi/4.7.4/../../../../arm-none-eabi/lib/armv7e-m\libm.a(lib_a-s_rint.o)
                              c:/chibistudio/tools/gnu tools arm embedded/4.7 2013q2/bin/../lib/gcc/arm-none-eabi/4.7.4/../../../../arm-none-eabi/lib/armv7e-m\libm.a(lib_a-w_pow.o) (rint)
c:/chibistudio/tools/gnu tools arm embedded/4.7 2013q2/bin/../lib/gcc/arm-none-eabi/4.7.4/../../../../arm-none-eabi/lib/armv7e-m\libm.a(lib_a-s_scalbn.o)
                              c:/chibistudio/tools/gnu tools arm embedded/4.7 2013q2/bin/../lib/gcc/arm-none-eabi/4.7.4/../../../../arm-none-eabi/lib/armv7e-m\libm.a(lib_a-e_pow.o) (scalbn)
c:/chibistudio/tools/gnu tools arm embedded/4.7 2013q2/bin/../lib/gcc/arm-none-eabi/4.7.4/../../../../arm-none-eabi/lib/armv7e-m\libm.a(lib_a-s_copysign.o)
                              c:/chibistudio/tools/gnu tools arm embedded/4.7 2013q2/bin/../lib/gcc/arm-none-eabi/4.7.4/../../../../arm-none-eabi/lib/armv7e-m\libm.a(lib_a-s_scalbn.o) (copysign)
c:/chibistudio/tools/gnu tools arm embedded/4.7 2013q2/bin/../lib/gcc/arm-none-eabi/4.7.4/armv7e-m\libgcc.a(_arm_addsubdf3.o)
                              build/obj/chprintf.o (__aeabi_dsub)
c:/chibistudio/tools/gnu tools arm embedded/4.7 2013q2/bin/../lib/gcc/arm-none-eabi/4.7.4/armv7e-m\libgcc.a(_arm_muldivdf3.o)
                              build/obj/chprintf.o (__aeabi_dmul)
c:/chibistudio/tools/gnu tools arm embedded/4.7 2013q2/bin/../lib/gcc/arm-none-eabi/4.7.4/armv7e-m\libgcc.a(_arm_cmpdf2.o)
                              build/obj/rfi_perftest.o (__aeabi_dcmpeq)
c:/chibistudio/tools/gnu tools arm embedded/4.7 2013q2/bin/../lib/gcc/arm-none-eabi/4.7.4/armv7e-m\libgcc.a(_arm_fixdfsi.o)
                              build/obj/chprintf.o (__aeabi_d2iz)
c:/chibistudio/tools/gnu tools arm embedded/4.7 2013q2/bin/../lib/gcc/arm-none-eabi/4.7.4/armv7e-m\libgcc.a(_arm_truncdfsf2.o)
                              build/obj/chprintf.o (__aeabi_d2f)
c:/chibistudio/tools/gnu tools arm embedded/4.7 2013q2/bin/../lib/gcc/arm-none-eabi/4.7.4/armv7e-m\libgcc.a(_arm_addsubsf3.o)
                              build/obj/trigger_gm.o (__aeabi_fsub)
c:/chibistudio/tools/gnu tools arm embedded/4.7 2013q2/bin/../lib/gcc/arm-none-eabi/4.7.4/armv7e-m\libgcc.a(_arm_muldivsf3.o)
                              build/obj/trigger_decoder.o (__aeabi_fmul)
c:/chibistudio/tools/gnu tools arm embedded/4.7 2013q2/bin/../lib/gcc/arm-none-eabi/4.7.4/armv7e-m\libgcc.a(_arm_cmpsf2.o)
                              build/obj/rfi_perftest.o (__aeabi_fcmpeq)
c:/chibistudio/tools/gnu tools arm embedded/4.7 2013q2/bin/../lib/gcc/arm-none-eabi/4.7.4/armv7e-m\libgcc.a(_arm_fixsfsi.o)
                              build/obj/trigger_decoder.o (__aeabi_f2iz)
c:/chibistudio/tools/gnu tools arm embedded/4.7 2013q2/bin/../lib/gcc/arm-none-eabi/4.7.4/armv7e-m\libgcc.a(_aeabi_ldivmod.o)
                              build/obj/histogram.o (__aeabi_ldivmod)
c:/chibistudio/tools/gnu tools arm embedded/4.7 2013q2/bin/../lib/gcc/arm-none-eabi/4.7.4/armv7e-m\libgcc.a(_aeabi_uldivmod.o)
                              build/obj/rfi_perftest.o (__aeabi_uldivmod)
c:/chibistudio/tools/gnu tools arm embedded/4.7 2013q2/bin/../lib/gcc/arm-none-eabi/4.7.4/armv7e-m\libgcc.a(_fixsfdi.o)
                              build/obj/histogram.o (__aeabi_f2lz)
c:/chibistudio/tools/gnu tools arm embedded/4.7 2013q2/bin/../lib/gcc/arm-none-eabi/4.7.4/armv7e-m\libgcc.a(_fixdfdi.o)
                              build/obj/histogram.o (__aeabi_d2lz)
c:/chibistudio/tools/gnu tools arm embedded/4.7 2013q2/bin/../lib/gcc/arm-none-eabi/4.7.4/armv7e-m\libgcc.a(_fixunssfdi.o)
                              c:/chibistudio/tools/gnu tools arm embedded/4.7 2013q2/bin/../lib/gcc/arm-none-eabi/4.7.4/armv7e-m\libgcc.a(_fixsfdi.o) (__aeabi_f2ulz)
c:/chibistudio/tools/gnu tools arm embedded/4.7 2013q2/bin/../lib/gcc/arm-none-eabi/4.7.4/armv7e-m\libgcc.a(_fixunsdfdi.o)
                              c:/chibistudio/tools/gnu tools arm embedded/4.7 2013q2/bin/../lib/gcc/arm-none-eabi/4.7.4/armv7e-m\libgcc.a(_fixdfdi.o) (__aeabi_d2ulz)
c:/chibistudio/tools/gnu tools arm embedded/4.7 2013q2/bin/../lib/gcc/arm-none-eabi/4.7.4/armv7e-m\libgcc.a(bpabi.o)
                              c:/chibistudio/tools/gnu tools arm embedded/4.7 2013q2/bin/../lib/gcc/arm-none-eabi/4.7.4/armv7e-m\libgcc.a(_aeabi_ldivmod.o) (__gnu_ldivmod_helper)
c:/chibistudio/tools/gnu tools arm embedded/4.7 2013q2/bin/../lib/gcc/arm-none-eabi/4.7.4/armv7e-m\libgcc.a(_dvmd_tls.o)
                              c:/chibistudio/tools/gnu tools arm embedded/4.7 2013q2/bin/../lib/gcc/arm-none-eabi/4.7.4/armv7e-m\libgcc.a(_aeabi_ldivmod.o) (__aeabi_ldiv0)
c:/chibistudio/tools/gnu tools arm embedded/4.7 2013q2/bin/../lib/gcc/arm-none-eabi/4.7.4/armv7e-m\libgcc.a(_arm_fixunsdfsi.o)
                              c:/chibistudio/tools/gnu tools arm embedded/4.7 2013q2/bin/../lib/gcc/arm-none-eabi/4.7.4/armv7e-m\libgcc.a(_fixunssfdi.o) (__aeabi_d2uiz)
c:/chibistudio/tools/gnu tools arm embedded/4.7 2013q2/bin/../lib/gcc/arm-none-eabi/4.7.4/armv7e-m\libgcc.a(_divdi3.o)
                              c:/chibistudio/tools/gnu tools arm embedded/4.7 2013q2/bin/../lib/gcc/arm-none-eabi/4.7.4/armv7e-m\libgcc.a(bpabi.o) (__divdi3)
c:/chibistudio/tools/gnu tools arm embedded/4.7 2013q2/bin/../lib/gcc/arm-none-eabi/4.7.4/armv7e-m\libgcc.a(_udivdi3.o)
                              c:/chibistudio/tools/gnu tools arm embedded/4.7 2013q2/bin/../lib/gcc/arm-none-eabi/4.7.4/armv7e-m\libgcc.a(bpabi.o) (__udivdi3)
c:/chibistudio/tools/gnu tools arm embedded/4.7 2013q2/bin/../lib/gcc/arm-none-eabi/4.7.4/../../../../arm-none-eabi/lib/armv7e-m\libc.a(lib_a-errno.o)
                              c:/chibistudio/tools/gnu tools arm embedded/4.7 2013q2/bin/../lib/gcc/arm-none-eabi/4.7.4/../../../../arm-none-eabi/lib/armv7e-m\libm.a(lib_a-w_log.o) (__errno)
c:/chibistudio/tools/gnu tools arm embedded/4.7 2013q2/bin/../lib/gcc/arm-none-eabi/4.7.4/../../../../arm-none-eabi/lib/armv7e-m\libc.a(lib_a-impure.o)
                              c:/chibistudio/tools/gnu tools arm embedded/4.7 2013q2/bin/../lib/gcc/arm-none-eabi/4.7.4/../../../../arm-none-eabi/lib/armv7e-m\libc.a(lib_a-errno.o) (_impure_ptr)
c:/chibistudio/tools/gnu tools arm embedded/4.7 2013q2/bin/../lib/gcc/arm-none-eabi/4.7.4/../../../../arm-none-eabi/lib/armv7e-m\libc.a(lib_a-lcltime_r.o)
                              build/obj/chrtclib.o (localtime_r)
c:/chibistudio/tools/gnu tools arm embedded/4.7 2013q2/bin/../lib/gcc/arm-none-eabi/4.7.4/../../../../arm-none-eabi/lib/armv7e-m\libc.a(lib_a-memcpy.o)
                              build/obj/memstreams.o (memcpy)
c:/chibistudio/tools/gnu tools arm embedded/4.7 2013q2/bin/../lib/gcc/arm-none-eabi/4.7.4/../../../../arm-none-eabi/lib/armv7e-m\libc.a(lib_a-memset.o)
                              build/obj/histogram.o (memset)
c:/chibistudio/tools/gnu tools arm embedded/4.7 2013q2/bin/../lib/gcc/arm-none-eabi/4.7.4/../../../../arm-none-eabi/lib/armv7e-m\libc.a(lib_a-mktime.o)
                              build/obj/chrtclib.o (mktime)
c:/chibistudio/tools/gnu tools arm embedded/4.7 2013q2/bin/../lib/gcc/arm-none-eabi/4.7.4/../../../../arm-none-eabi/lib/armv7e-m\libc.a(lib_a-mktm_r.o)
                              c:/chibistudio/tools/gnu tools arm embedded/4.7 2013q2/bin/../lib/gcc/arm-none-eabi/4.7.4/../../../../arm-none-eabi/lib/armv7e-m\libc.a(lib_a-mktime.o) (__tzcalc_limits)
c:/chibistudio/tools/gnu tools arm embedded/4.7 2013q2/bin/../lib/gcc/arm-none-eabi/4.7.4/../../../../arm-none-eabi/lib/armv7e-m\libc.a(lib_a-strcat.o)
                              build/obj/eficonsole_logic.o (strcat)
c:/chibistudio/tools/gnu tools arm embedded/4.7 2013q2/bin/../lib/gcc/arm-none-eabi/4.7.4/../../../../arm-none-eabi/lib/armv7e-m\libc.a(lib_a-strchr.o)
                              build/obj/nmea.o (strchr)
c:/chibistudio/tools/gnu tools arm embedded/4.7 2013q2/bin/../lib/gcc/arm-none-eabi/4.7.4/../../../../arm-none-eabi/lib/armv7e-m\libc.a(lib_a-strcpy.o)
                              build/obj/histogram.o (strcpy)
c:/chibistudio/tools/gnu tools arm embedded/4.7 2013q2/bin/../lib/gcc/arm-none-eabi/4.7.4/../../../../arm-none-eabi/lib/armv7e-m\libc.a(lib_a-strlen.o)
                              build/obj/histogram.o (strlen)
c:/chibistudio/tools/gnu tools arm embedded/4.7 2013q2/bin/../lib/gcc/arm-none-eabi/4.7.4/../../../../arm-none-eabi/lib/armv7e-m\libc.a(lib_a-strncmp.o)
                              build/obj/eficonsole_logic.o (strncmp)
c:/chibistudio/tools/gnu tools arm embedded/4.7 2013q2/bin/../lib/gcc/arm-none-eabi/4.7.4/../../../../arm-none-eabi/lib/armv7e-m\libc.a(lib_a-strrchr.o)
                              build/obj/nmea.o (strrchr)
c:/chibistudio/tools/gnu tools arm embedded/4.7 2013q2/bin/../lib/gcc/arm-none-eabi/4.7.4/../../../../arm-none-eabi/lib/armv7e-m\libc.a(lib_a-strstr.o)
                              build/obj/nmea.o (strstr)
c:/chibistudio/tools/gnu tools arm embedded/4.7 2013q2/bin/../lib/gcc/arm-none-eabi/4.7.4/../../../../arm-none-eabi/lib/armv7e-m\libc.a(lib_a-tzlock.o)
                              c:/chibistudio/tools/gnu tools arm embedded/4.7 2013q2/bin/../lib/gcc/arm-none-eabi/4.7.4/../../../../arm-none-eabi/lib/armv7e-m\libc.a(lib_a-mktm_r.o) (__tz_lock)
c:/chibistudio/tools/gnu tools arm embedded/4.7 2013q2/bin/../lib/gcc/arm-none-eabi/4.7.4/../../../../arm-none-eabi/lib/armv7e-m\libc.a(lib_a-tzvars.o)
                              c:/chibistudio/tools/gnu tools arm embedded/4.7 2013q2/bin/../lib/gcc/arm-none-eabi/4.7.4/../../../../arm-none-eabi/lib/armv7e-m\libc.a(lib_a-mktime.o) (_daylight)
c:/chibistudio/tools/gnu tools arm embedded/4.7 2013q2/bin/../lib/gcc/arm-none-eabi/4.7.4/../../../../arm-none-eabi/lib/armv7e-m\libc.a(lib_a-div.o)
                              c:/chibistudio/tools/gnu tools arm embedded/4.7 2013q2/bin/../lib/gcc/arm-none-eabi/4.7.4/../../../../arm-none-eabi/lib/armv7e-m\libc.a(lib_a-mktime.o) (div)
c:/chibistudio/tools/gnu tools arm embedded/4.7 2013q2/bin/../lib/gcc/arm-none-eabi/4.7.4/../../../../arm-none-eabi/lib/armv7e-m\libc.a(lib_a-gettzinfo.o)
                              c:/chibistudio/tools/gnu tools arm embedded/4.7 2013q2/bin/../lib/gcc/arm-none-eabi/4.7.4/../../../../arm-none-eabi/lib/armv7e-m\libc.a(lib_a-mktime.o) (__gettzinfo)
c:/chibistudio/tools/gnu tools arm embedded/4.7 2013q2/bin/../lib/gcc/arm-none-eabi/4.7.4/../../../../arm-none-eabi/lib/armv7e-m\libc.a(lib_a-memchr.o)
                              c:/chibistudio/tools/gnu tools arm embedded/4.7 2013q2/bin/../lib/gcc/arm-none-eabi/4.7.4/../../../../arm-none-eabi/lib/armv7e-m\libc.a(lib_a-strstr.o) (memchr)
c:/chibistudio/tools/gnu tools arm embedded/4.7 2013q2/bin/../lib/gcc/arm-none-eabi/4.7.4/../../../../arm-none-eabi/lib/armv7e-m\libc.a(lib_a-memcmp.o)
                              c:/chibistudio/tools/gnu tools arm embedded/4.7 2013q2/bin/../lib/gcc/arm-none-eabi/4.7.4/../../../../arm-none-eabi/lib/armv7e-m\libc.a(lib_a-strstr.o) (memcmp)

Discarded input sections

 .text          0x00000000        0x0 build/obj/crt0.o
 .data          0x00000000        0x0 build/obj/crt0.o
 .bss           0x00000000        0x0 build/obj/crt0.o
 .text.__early_init
                0x00000000       0x10 build/obj/crt0.o
 .text          0x00000000        0x0 build/obj/vectors.o
 .data          0x00000000        0x0 build/obj/vectors.o
 .bss           0x00000000        0x0 build/obj/vectors.o
 .text          0x00000000        0x0 build/obj/chcore.o
 .data          0x00000000        0x0 build/obj/chcore.o
 .bss           0x00000000        0x0 build/obj/chcore.o
 .text          0x00000000        0x0 build/obj/chcore_v7m.o
 .data          0x00000000        0x0 build/obj/chcore_v7m.o
 .bss           0x00000000        0x0 build/obj/chcore_v7m.o
 .text          0x00000000        0x0 build/obj/nvic.o
 .data          0x00000000        0x0 build/obj/nvic.o
 .bss           0x00000000        0x0 build/obj/nvic.o
 .text          0x00000000        0x0 build/obj/chsys.o
 .data          0x00000000        0x0 build/obj/chsys.o
 .bss           0x00000000        0x0 build/obj/chsys.o
 .text          0x00000000        0x0 build/obj/chdebug.o
 .data          0x00000000        0x0 build/obj/chdebug.o
 .bss           0x00000000        0x0 build/obj/chdebug.o
 .text.dbg_check_suspend
                0x00000000       0x30 build/obj/chdebug.o
 .text.dbg_check_disable
                0x00000000       0x30 build/obj/chdebug.o
 .text          0x00000000        0x0 build/obj/chlists.o
 .data          0x00000000        0x0 build/obj/chlists.o
 .bss           0x00000000        0x0 build/obj/chlists.o
 .debug_info    0x00000000       0x79 build/obj/chlists.o
 .debug_abbrev  0x00000000       0x26 build/obj/chlists.o
 .debug_aranges
                0x00000000       0x18 build/obj/chlists.o
 .debug_line    0x00000000       0x1d build/obj/chlists.o
 .debug_str     0x00000000      0x126 build/obj/chlists.o
 .comment       0x00000000       0x71 build/obj/chlists.o
 .ARM.attributes
                0x00000000       0x39 build/obj/chlists.o
 .text          0x00000000        0x0 build/obj/chvt.o
 .data          0x00000000        0x0 build/obj/chvt.o
 .bss           0x00000000        0x0 build/obj/chvt.o
 .text          0x00000000        0x0 build/obj/chschd.o
 .data          0x00000000        0x0 build/obj/chschd.o
 .bss           0x00000000        0x0 build/obj/chschd.o
 .text          0x00000000        0x0 build/obj/chthreads.o
 .data          0x00000000        0x0 build/obj/chthreads.o
 .bss           0x00000000        0x0 build/obj/chthreads.o
 .text.chThdSetPriority
                0x00000000       0x70 build/obj/chthreads.o
 .text.chThdResume
                0x00000000       0x40 build/obj/chthreads.o
 .text.chThdTerminate
                0x00000000       0x30 build/obj/chthreads.o
 .text.chThdSleepUntil
                0x00000000       0x40 build/obj/chthreads.o
 .text.chThdYield
                0x00000000       0x40 build/obj/chthreads.o
 .text.chThdWait
                0x00000000       0x90 build/obj/chthreads.o
 .text          0x00000000        0x0 build/obj/chdynamic.o
 .data          0x00000000        0x0 build/obj/chdynamic.o
 .bss           0x00000000        0x0 build/obj/chdynamic.o
 .text.chThdAddRef
                0x00000000       0x40 build/obj/chdynamic.o
 .text.chThdCreateFromHeap
                0x00000000       0x60 build/obj/chdynamic.o
 .text.chThdCreateFromMemoryPool
                0x00000000       0x80 build/obj/chdynamic.o
 .text          0x00000000        0x0 build/obj/chregistry.o
 .data          0x00000000        0x0 build/obj/chregistry.o
 .bss           0x00000000        0x0 build/obj/chregistry.o
 .text          0x00000000        0x0 build/obj/chsem.o
 .data          0x00000000        0x0 build/obj/chsem.o
 .bss           0x00000000        0x0 build/obj/chsem.o
 .text.chSemResetI
                0x00000000       0xd0 build/obj/chsem.o
 .text.chSemReset
                0x00000000       0x30 build/obj/chsem.o
 .text.chSemWaitS
                0x00000000       0x80 build/obj/chsem.o
 .text.chSemWait
                0x00000000       0x30 build/obj/chsem.o
 .text.chSemWaitTimeoutS
                0x00000000       0x90 build/obj/chsem.o
 .text.chSemWaitTimeout
                0x00000000       0x30 build/obj/chsem.o
 .text.chSemSignal
                0x00000000       0x80 build/obj/chsem.o
 .text.chSemAddCounterI
                0x00000000       0xe0 build/obj/chsem.o
 .text.chSemSignalWait
                0x00000000       0xe0 build/obj/chsem.o
 .text          0x00000000        0x0 build/obj/chmtx.o
 .data          0x00000000        0x0 build/obj/chmtx.o
 .bss           0x00000000        0x0 build/obj/chmtx.o
 .text.chMtxTryLockS
                0x00000000       0x50 build/obj/chmtx.o
 .text.chMtxTryLock
                0x00000000       0x30 build/obj/chmtx.o
 .text.chMtxUnlockS
                0x00000000       0x80 build/obj/chmtx.o
 .text.chMtxUnlockAll
                0x00000000       0x60 build/obj/chmtx.o
 .text          0x00000000        0x0 build/obj/chcond.o
 .data          0x00000000        0x0 build/obj/chcond.o
 .bss           0x00000000        0x0 build/obj/chcond.o
 .text.chCondInit
                0x00000000       0x30 build/obj/chcond.o
 .text.chCondSignal
                0x00000000       0x50 build/obj/chcond.o
 .text.chCondSignalI
                0x00000000       0x40 build/obj/chcond.o
 .text.chCondBroadcastI
                0x00000000       0x50 build/obj/chcond.o
 .text.chCondBroadcast
                0x00000000       0x30 build/obj/chcond.o
 .text.chCondWaitS
                0x00000000       0x80 build/obj/chcond.o
 .text.chCondWait
                0x00000000       0x30 build/obj/chcond.o
 .text.chCondWaitTimeoutS
                0x00000000       0xa0 build/obj/chcond.o
 .text.chCondWaitTimeout
                0x00000000       0x30 build/obj/chcond.o
 .rodata.str1.4
                0x00000000       0xc8 build/obj/chcond.o
 .debug_info    0x00000000      0xd0f build/obj/chcond.o
 .debug_abbrev  0x00000000      0x2b9 build/obj/chcond.o
 .debug_loc     0x00000000      0x4bf build/obj/chcond.o
 .debug_aranges
                0x00000000       0x60 build/obj/chcond.o
 .debug_ranges  0x00000000       0x50 build/obj/chcond.o
 .debug_line    0x00000000      0x2cf build/obj/chcond.o
 .debug_str     0x00000000      0x461 build/obj/chcond.o
 .comment       0x00000000       0x71 build/obj/chcond.o
 .ARM.attributes
                0x00000000       0x39 build/obj/chcond.o
 .debug_frame   0x00000000      0x12c build/obj/chcond.o
 .text          0x00000000        0x0 build/obj/chevents.o
 .data          0x00000000        0x0 build/obj/chevents.o
 .bss           0x00000000        0x0 build/obj/chevents.o
 .text.chEvtRegisterMask
                0x00000000       0x60 build/obj/chevents.o
 .text.chEvtUnregister
                0x00000000       0x60 build/obj/chevents.o
 .text.chEvtGetAndClearEvents
                0x00000000       0x40 build/obj/chevents.o
 .text.chEvtAddEvents
                0x00000000       0x30 build/obj/chevents.o
 .text.chEvtGetAndClearFlags
                0x00000000       0x30 build/obj/chevents.o
 .text.chEvtSignal
                0x00000000       0x50 build/obj/chevents.o
 .text.chEvtBroadcastFlags
                0x00000000       0x30 build/obj/chevents.o
 .text.chEvtGetAndClearFlagsI
                0x00000000       0x10 build/obj/chevents.o
 .text.chEvtDispatch
                0x00000000       0x70 build/obj/chevents.o
 .text.chEvtWaitOne
                0x00000000       0x50 build/obj/chevents.o
 .text.chEvtWaitAny
                0x00000000       0x50 build/obj/chevents.o
 .text.chEvtWaitAll
                0x00000000       0x50 build/obj/chevents.o
 .text.chEvtWaitOneTimeout
                0x00000000       0x80 build/obj/chevents.o
 .text.chEvtWaitAnyTimeout
                0x00000000       0x70 build/obj/chevents.o
 .text.chEvtWaitAllTimeout
                0x00000000       0x70 build/obj/chevents.o
 .text          0x00000000        0x0 build/obj/chmsg.o
 .data          0x00000000        0x0 build/obj/chmsg.o
 .bss           0x00000000        0x0 build/obj/chmsg.o
 .text.chMsgSend
                0x00000000       0x70 build/obj/chmsg.o
 .text.chMsgWait
                0x00000000       0x60 build/obj/chmsg.o
 .text.chMsgRelease
                0x00000000       0x40 build/obj/chmsg.o
 .rodata.str1.4
                0x00000000       0x44 build/obj/chmsg.o
 .debug_info    0x00000000      0x8ba build/obj/chmsg.o
 .debug_abbrev  0x00000000      0x227 build/obj/chmsg.o
 .debug_loc     0x00000000      0x1c7 build/obj/chmsg.o
 .debug_aranges
                0x00000000       0x30 build/obj/chmsg.o
 .debug_ranges  0x00000000       0x20 build/obj/chmsg.o
 .debug_line    0x00000000      0x1ea build/obj/chmsg.o
 .debug_str     0x00000000      0x38a build/obj/chmsg.o
 .comment       0x00000000       0x71 build/obj/chmsg.o
 .ARM.attributes
                0x00000000       0x39 build/obj/chmsg.o
 .debug_frame   0x00000000       0x6c build/obj/chmsg.o
 .text          0x00000000        0x0 build/obj/chmboxes.o
 .data          0x00000000        0x0 build/obj/chmboxes.o
 .bss           0x00000000        0x0 build/obj/chmboxes.o
 .text.chMBInit
                0x00000000       0x50 build/obj/chmboxes.o
 .text.chMBReset
                0x00000000       0x60 build/obj/chmboxes.o
 .text.chMBPostS
                0x00000000       0x60 build/obj/chmboxes.o
 .text.chMBPost
                0x00000000       0x30 build/obj/chmboxes.o
 .text.chMBPostI
                0x00000000       0x60 build/obj/chmboxes.o
 .text.chMBPostAheadS
                0x00000000       0x60 build/obj/chmboxes.o
 .text.chMBPostAhead
                0x00000000       0x30 build/obj/chmboxes.o
 .text.chMBPostAheadI
                0x00000000       0x60 build/obj/chmboxes.o
 .text.chMBFetchS
                0x00000000       0x60 build/obj/chmboxes.o
 .text.chMBFetch
                0x00000000       0x30 build/obj/chmboxes.o
 .text.chMBFetchI
                0x00000000       0x60 build/obj/chmboxes.o
 .rodata.str1.4
                0x00000000       0xac build/obj/chmboxes.o
 .debug_info    0x00000000      0xdf1 build/obj/chmboxes.o
 .debug_abbrev  0x00000000      0x20d build/obj/chmboxes.o
 .debug_loc     0x00000000      0x662 build/obj/chmboxes.o
 .debug_aranges
                0x00000000       0x70 build/obj/chmboxes.o
 .debug_ranges  0x00000000       0x60 build/obj/chmboxes.o
 .debug_line    0x00000000      0x2e8 build/obj/chmboxes.o
 .debug_str     0x00000000      0x430 build/obj/chmboxes.o
 .comment       0x00000000       0x71 build/obj/chmboxes.o
 .ARM.attributes
                0x00000000       0x39 build/obj/chmboxes.o
 .debug_frame   0x00000000      0x16c build/obj/chmboxes.o
 .text          0x00000000        0x0 build/obj/chqueues.o
 .data          0x00000000        0x0 build/obj/chqueues.o
 .bss           0x00000000        0x0 build/obj/chqueues.o
 .text          0x00000000        0x0 build/obj/chmemcore.o
 .data          0x00000000        0x0 build/obj/chmemcore.o
 .bss           0x00000000        0x0 build/obj/chmemcore.o
 .text.chCoreStatus
                0x00000000       0x20 build/obj/chmemcore.o
 .text          0x00000000        0x0 build/obj/chheap.o
 .data          0x00000000        0x0 build/obj/chheap.o
 .bss           0x00000000        0x0 build/obj/chheap.o
 .text.chHeapInit
                0x00000000       0x50 build/obj/chheap.o
 .text.chHeapStatus
                0x00000000       0x50 build/obj/chheap.o
 .text          0x00000000        0x0 build/obj/chmempools.o
 .data          0x00000000        0x0 build/obj/chmempools.o
 .bss           0x00000000        0x0 build/obj/chmempools.o
 .text.chPoolInit
                0x00000000       0x40 build/obj/chmempools.o
 .text.chPoolAllocI
                0x00000000       0x40 build/obj/chmempools.o
 .text.chPoolAlloc
                0x00000000       0x30 build/obj/chmempools.o
 .text.chPoolLoadArray
                0x00000000       0xa0 build/obj/chmempools.o
 .text          0x00000000        0x0 build/obj/chprintf.o
 .data          0x00000000        0x0 build/obj/chprintf.o
 .bss           0x00000000        0x0 build/obj/chprintf.o
 .text          0x00000000        0x0 build/obj/memstreams.o
 .data          0x00000000        0x0 build/obj/memstreams.o
 .bss           0x00000000        0x0 build/obj/memstreams.o
 .text          0x00000000        0x0 build/obj/chrtclib.o
 .data          0x00000000        0x0 build/obj/chrtclib.o
 .bss           0x00000000        0x0 build/obj/chrtclib.o
 .text.rtcGetTimeUnixUsec
                0x00000000       0x50 build/obj/chrtclib.o
 .text          0x00000000        0x0 build/obj/data_buffer.o
 .data          0x00000000        0x0 build/obj/data_buffer.o
 .bss           0x00000000        0x0 build/obj/data_buffer.o
 .text.dbIsFull
                0x00000000       0x20 build/obj/data_buffer.o
 .text.dbClear  0x00000000       0x10 build/obj/data_buffer.o
 .text.dbCopy   0x00000000       0x60 build/obj/data_buffer.o
 .text.dbAdd    0x00000000       0x20 build/obj/data_buffer.o
 .text.modp     0x00000000       0x20 build/obj/data_buffer.o
 .text.dbPrint  0x00000000      0x190 build/obj/data_buffer.o
 .text.dbPrintTable
                0x00000000      0x120 build/obj/data_buffer.o
 .rodata.str1.4
                0x00000000       0x4c build/obj/data_buffer.o
 .debug_info    0x00000000      0x63c build/obj/data_buffer.o
 .debug_abbrev  0x00000000      0x1aa build/obj/data_buffer.o
 .debug_loc     0x00000000      0x3ca build/obj/data_buffer.o
 .debug_aranges
                0x00000000       0x50 build/obj/data_buffer.o
 .debug_ranges  0x00000000      0x120 build/obj/data_buffer.o
 .debug_line    0x00000000      0x21d build/obj/data_buffer.o
 .debug_str     0x00000000      0x1fb build/obj/data_buffer.o
 .comment       0x00000000       0x71 build/obj/data_buffer.o
 .ARM.attributes
                0x00000000       0x39 build/obj/data_buffer.o
 .debug_frame   0x00000000       0xd4 build/obj/data_buffer.o
 .text          0x00000000        0x0 build/obj/listener_array.o
 .data          0x00000000        0x0 build/obj/listener_array.o
 .bss           0x00000000        0x0 build/obj/listener_array.o
 .text.invokeCallbacks
                0x00000000       0x30 build/obj/listener_array.o
 .text.invokeArgIntCallbacks
                0x00000000       0x30 build/obj/listener_array.o
 .text          0x00000000        0x0 build/obj/crc.o
 .data          0x00000000        0x0 build/obj/crc.o
 .bss           0x00000000        0x0 build/obj/crc.o
 .text          0x00000000        0x0 build/obj/histogram.o
 .data          0x00000000        0x0 build/obj/histogram.o
 .bss           0x00000000        0x0 build/obj/histogram.o
 .text          0x00000000        0x0 build/obj/eficonsole_logic.o
 .data          0x00000000        0x0 build/obj/eficonsole_logic.o
 .bss           0x00000000        0x0 build/obj/eficonsole_logic.o
 .text          0x00000000        0x0 build/obj/wave_math.o
 .data          0x00000000        0x0 build/obj/wave_math.o
 .bss           0x00000000        0x0 build/obj/wave_math.o
 .text.floatmod
                0x00000000       0x20 build/obj/wave_math.o
 .text.waveState
                0x00000000       0x60 build/obj/wave_math.o
 .debug_info    0x00000000      0x1b4 build/obj/wave_math.o
 .debug_abbrev  0x00000000       0xeb build/obj/wave_math.o
 .debug_loc     0x00000000      0x210 build/obj/wave_math.o
 .debug_aranges
                0x00000000       0x28 build/obj/wave_math.o
 .debug_ranges  0x00000000       0x18 build/obj/wave_math.o
 .debug_line    0x00000000      0x1b2 build/obj/wave_math.o
 .debug_str     0x00000000      0x198 build/obj/wave_math.o
 .comment       0x00000000       0x71 build/obj/wave_math.o
 .ARM.attributes
                0x00000000       0x39 build/obj/wave_math.o
 .debug_frame   0x00000000       0x40 build/obj/wave_math.o
 .text          0x00000000        0x0 build/obj/audi_aan.o
 .data          0x00000000        0x0 build/obj/audi_aan.o
 .bss           0x00000000        0x0 build/obj/audi_aan.o
 .debug_info    0x00000000       0xac build/obj/audi_aan.o
 .debug_abbrev  0x00000000       0x4b build/obj/audi_aan.o
 .debug_aranges
                0x00000000       0x18 build/obj/audi_aan.o
 .debug_line    0x00000000       0xe0 build/obj/audi_aan.o
 .debug_str     0x00000000      0x150 build/obj/audi_aan.o
 .comment       0x00000000       0x71 build/obj/audi_aan.o
 .ARM.attributes
                0x00000000       0x39 build/obj/audi_aan.o
 .text          0x00000000        0x0 build/obj/dodge_neon.o
 .data          0x00000000        0x0 build/obj/dodge_neon.o
 .bss           0x00000000        0x0 build/obj/dodge_neon.o
 .text          0x00000000        0x0 build/obj/ford_fiesta.o
 .data          0x00000000        0x0 build/obj/ford_fiesta.o
 .bss           0x00000000        0x0 build/obj/ford_fiesta.o
 .text          0x00000000        0x0 build/obj/ford_1995_inline_6.o
 .data          0x00000000        0x0 build/obj/ford_1995_inline_6.o
 .bss           0x00000000        0x0 build/obj/ford_1995_inline_6.o
 .text          0x00000000        0x0 build/obj/nissan_primera.o
 .data          0x00000000        0x0 build/obj/nissan_primera.o
 .bss           0x00000000        0x0 build/obj/nissan_primera.o
 .text          0x00000000        0x0 build/obj/mazda_miata_nb.o
 .data          0x00000000        0x0 build/obj/mazda_miata_nb.o
 .bss           0x00000000        0x0 build/obj/mazda_miata_nb.o
 .text          0x00000000        0x0 build/obj/honda_accord.o
 .data          0x00000000        0x0 build/obj/honda_accord.o
 .bss           0x00000000        0x0 build/obj/honda_accord.o
 .text          0x00000000        0x0 build/obj/snow_blower.o
 .data          0x00000000        0x0 build/obj/snow_blower.o
 .bss           0x00000000        0x0 build/obj/snow_blower.o
 .debug_info    0x00000000       0xac build/obj/snow_blower.o
 .debug_abbrev  0x00000000       0x4b build/obj/snow_blower.o
 .debug_aranges
                0x00000000       0x18 build/obj/snow_blower.o
 .debug_line    0x00000000       0xe0 build/obj/snow_blower.o
 .debug_str     0x00000000      0x153 build/obj/snow_blower.o
 .comment       0x00000000       0x71 build/obj/snow_blower.o
 .ARM.attributes
                0x00000000       0x39 build/obj/snow_blower.o
 .text          0x00000000        0x0 build/obj/GY6_139QMB.o
 .data          0x00000000        0x0 build/obj/GY6_139QMB.o
 .bss           0x00000000        0x0 build/obj/GY6_139QMB.o
 .text          0x00000000        0x0 build/obj/mazda_323.o
 .data          0x00000000        0x0 build/obj/mazda_323.o
 .bss           0x00000000        0x0 build/obj/mazda_323.o
 .text          0x00000000        0x0 build/obj/eficonsole.o
 .data          0x00000000        0x0 build/obj/eficonsole.o
 .bss           0x00000000        0x0 build/obj/eficonsole.o
 .text          0x00000000        0x0 build/obj/console_io.o
 .data          0x00000000        0x0 build/obj/console_io.o
 .bss           0x00000000        0x0 build/obj/console_io.o
 .text          0x00000000        0x0 build/obj/status_loop.o
 .data          0x00000000        0x0 build/obj/status_loop.o
 .bss           0x00000000        0x0 build/obj/status_loop.o
 .text          0x00000000        0x0 build/obj/tunerstudio_algo.o
 .data          0x00000000        0x0 build/obj/tunerstudio_algo.o
 .bss           0x00000000        0x0 build/obj/tunerstudio_algo.o
 .text          0x00000000        0x0 build/obj/tunerstudio.o
 .data          0x00000000        0x0 build/obj/tunerstudio.o
 .bss           0x00000000        0x0 build/obj/tunerstudio.o
 .text          0x00000000        0x0 build/obj/datalogging.o
 .data          0x00000000        0x0 build/obj/datalogging.o
 .bss           0x00000000        0x0 build/obj/datalogging.o
 .text.isInitialized
                0x00000000       0x20 build/obj/datalogging.o
 .text          0x00000000        0x0 build/obj/rfiutil.o
 .data          0x00000000        0x0 build/obj/rfiutil.o
 .bss           0x00000000        0x0 build/obj/rfiutil.o
 .text.mylog10  0x00000000       0x90 build/obj/rfiutil.o
 .text.hexChar  0x00000000       0x10 build/obj/rfiutil.o
 .text          0x00000000        0x0 build/obj/hal.o
 .data          0x00000000        0x0 build/obj/hal.o
 .bss           0x00000000        0x0 build/obj/hal.o
 .text          0x00000000        0x0 build/obj/adc.o
 .data          0x00000000        0x0 build/obj/adc.o
 .bss           0x00000000        0x0 build/obj/adc.o
 .text.adcStop  0x00000000       0x60 build/obj/adc.o
 .text.adcStartConversion
                0x00000000       0x30 build/obj/adc.o
 .text.adcStopConversion
                0x00000000       0x80 build/obj/adc.o
 .text.adcStopConversionI
                0x00000000       0x70 build/obj/adc.o
 .text.adcConvert
                0x00000000       0x60 build/obj/adc.o
 .text.adcAcquireBus
                0x00000000       0x30 build/obj/adc.o
 .text.adcReleaseBus
                0x00000000       0x30 build/obj/adc.o
 .text          0x00000000        0x0 build/obj/can.o
 .data          0x00000000        0x0 build/obj/can.o
 .bss           0x00000000        0x0 build/obj/can.o
 .text.canStart
                0x00000000       0x80 build/obj/can.o
 .text.canStop  0x00000000       0x80 build/obj/can.o
 .text.canTransmit
                0x00000000       0xa0 build/obj/can.o
 .text.canReceive
                0x00000000       0xa0 build/obj/can.o
 .text.canSleep
                0x00000000       0x80 build/obj/can.o
 .text.canWakeup
                0x00000000       0x80 build/obj/can.o
 .rodata.str1.4
                0x00000000       0xe0 build/obj/can.o
 .text          0x00000000        0x0 build/obj/ext.o
 .data          0x00000000        0x0 build/obj/ext.o
 .bss           0x00000000        0x0 build/obj/ext.o
 .debug_info    0x00000000       0x97 build/obj/ext.o
 .debug_abbrev  0x00000000       0x4b build/obj/ext.o
 .debug_aranges
                0x00000000       0x18 build/obj/ext.o
 .debug_line    0x00000000       0xe0 build/obj/ext.o
 .debug_str     0x00000000      0x134 build/obj/ext.o
 .comment       0x00000000       0x71 build/obj/ext.o
 .ARM.attributes
                0x00000000       0x39 build/obj/ext.o
 .text          0x00000000        0x0 build/obj/gpt.o
 .data          0x00000000        0x0 build/obj/gpt.o
 .bss           0x00000000        0x0 build/obj/gpt.o
 .debug_info    0x00000000       0x97 build/obj/gpt.o
 .debug_abbrev  0x00000000       0x4b build/obj/gpt.o
 .debug_aranges
                0x00000000       0x18 build/obj/gpt.o
 .debug_line    0x00000000       0xe0 build/obj/gpt.o
 .debug_str     0x00000000      0x134 build/obj/gpt.o
 .comment       0x00000000       0x71 build/obj/gpt.o
 .ARM.attributes
                0x00000000       0x39 build/obj/gpt.o
 .text          0x00000000        0x0 build/obj/i2c.o
 .data          0x00000000        0x0 build/obj/i2c.o
 .bss           0x00000000        0x0 build/obj/i2c.o
 .text.i2cStart
                0x00000000       0x70 build/obj/i2c.o
 .text.i2cStop  0x00000000       0x60 build/obj/i2c.o
 .text.i2cGetErrors
                0x00000000       0x30 build/obj/i2c.o
 .text.i2cMasterReceiveTimeout
                0x00000000       0x90 build/obj/i2c.o
 .text          0x00000000        0x0 build/obj/icu.o
 .data          0x00000000        0x0 build/obj/icu.o
 .bss           0x00000000        0x0 build/obj/icu.o
 .text          0x00000000        0x0 build/obj/mac.o
 .data          0x00000000        0x0 build/obj/mac.o
 .bss           0x00000000        0x0 build/obj/mac.o
 .debug_info    0x00000000       0x97 build/obj/mac.o
 .debug_abbrev  0x00000000       0x4b build/obj/mac.o
 .debug_aranges
                0x00000000       0x18 build/obj/mac.o
 .debug_line    0x00000000       0xe0 build/obj/mac.o
 .debug_str     0x00000000      0x134 build/obj/mac.o
 .comment       0x00000000       0x71 build/obj/mac.o
 .ARM.attributes
                0x00000000       0x39 build/obj/mac.o
 .text          0x00000000        0x0 build/obj/mmc_spi.o
 .data          0x00000000        0x0 build/obj/mmc_spi.o
 .bss           0x00000000        0x0 build/obj/mmc_spi.o
 .text.mmcErase
                0x00000000       0x80 build/obj/mmc_spi.o
 .text          0x00000000        0x0 build/obj/mmcsd.o
 .data          0x00000000        0x0 build/obj/mmcsd.o
 .bss           0x00000000        0x0 build/obj/mmcsd.o
 .text          0x00000000        0x0 build/obj/pal.o
 .data          0x00000000        0x0 build/obj/pal.o
 .bss           0x00000000        0x0 build/obj/pal.o
 .text.palReadBus
                0x00000000       0x40 build/obj/pal.o
 .text.palWriteBus
                0x00000000       0x50 build/obj/pal.o
 .text.palSetBusMode
                0x00000000       0x40 build/obj/pal.o
 .rodata.str1.4
                0x00000000       0x50 build/obj/pal.o
 .debug_info    0x00000000      0x37d build/obj/pal.o
 .debug_abbrev  0x00000000      0x149 build/obj/pal.o
 .debug_loc     0x00000000      0x112 build/obj/pal.o
 .debug_aranges
                0x00000000       0x30 build/obj/pal.o
 .debug_ranges  0x00000000       0x20 build/obj/pal.o
 .debug_line    0x00000000      0x1c4 build/obj/pal.o
 .debug_str     0x00000000      0x220 build/obj/pal.o
 .comment       0x00000000       0x71 build/obj/pal.o
 .ARM.attributes
                0x00000000       0x39 build/obj/pal.o
 .debug_frame   0x00000000       0x6c build/obj/pal.o
 .text          0x00000000        0x0 build/obj/pwm.o
 .data          0x00000000        0x0 build/obj/pwm.o
 .bss           0x00000000        0x0 build/obj/pwm.o
 .text.pwmStop  0x00000000       0x60 build/obj/pwm.o
 .text.pwmChangePeriod
                0x00000000       0x60 build/obj/pwm.o
 .text.pwmEnableChannel
                0x00000000       0x60 build/obj/pwm.o
 .text.pwmDisableChannel
                0x00000000       0x60 build/obj/pwm.o
 .text          0x00000000        0x0 build/obj/rtc.o
 .data          0x00000000        0x0 build/obj/rtc.o
 .bss           0x00000000        0x0 build/obj/rtc.o
 .text.rtcSetAlarm
                0x00000000       0x50 build/obj/rtc.o
 .text.rtcGetAlarm
                0x00000000       0x50 build/obj/rtc.o
 .text          0x00000000        0x0 build/obj/sdc.o
 .data          0x00000000        0x0 build/obj/sdc.o
 .bss           0x00000000        0x0 build/obj/sdc.o
 .debug_info    0x00000000       0x97 build/obj/sdc.o
 .debug_abbrev  0x00000000       0x4b build/obj/sdc.o
 .debug_aranges
                0x00000000       0x18 build/obj/sdc.o
 .debug_line    0x00000000       0xe0 build/obj/sdc.o
 .debug_str     0x00000000      0x134 build/obj/sdc.o
 .comment       0x00000000       0x71 build/obj/sdc.o
 .ARM.attributes
                0x00000000       0x39 build/obj/sdc.o
 .text          0x00000000        0x0 build/obj/serial.o
 .data          0x00000000        0x0 build/obj/serial.o
 .bss           0x00000000        0x0 build/obj/serial.o
 .text.sdStop   0x00000000       0x70 build/obj/serial.o
 .text.sdRequestDataI
                0x00000000       0x40 build/obj/serial.o
 .text          0x00000000        0x0 build/obj/serial_usb.o
 .data          0x00000000        0x0 build/obj/serial_usb.o
 .bss           0x00000000        0x0 build/obj/serial_usb.o
 .text.sduStop  0x00000000       0xb0 build/obj/serial_usb.o
 .text          0x00000000        0x0 build/obj/spi.o
 .data          0x00000000        0x0 build/obj/spi.o
 .bss           0x00000000        0x0 build/obj/spi.o
 .text.spiStartIgnore
                0x00000000       0x60 build/obj/spi.o
 .text.spiStartExchange
                0x00000000       0x70 build/obj/spi.o
 .text.spiStartSend
                0x00000000       0x70 build/obj/spi.o
 .text.spiStartReceive
                0x00000000       0x70 build/obj/spi.o
 .text.spiExchange
                0x00000000       0xa0 build/obj/spi.o
 .text.spiAcquireBus
                0x00000000       0x30 build/obj/spi.o
 .text.spiReleaseBus
                0x00000000       0x30 build/obj/spi.o
 .text          0x00000000        0x0 build/obj/tm.o
 .data          0x00000000        0x0 build/obj/tm.o
 .bss           0x00000000        0x0 build/obj/tm.o
 .debug_info    0x00000000       0x97 build/obj/tm.o
 .debug_abbrev  0x00000000       0x4b build/obj/tm.o
 .debug_aranges
                0x00000000       0x18 build/obj/tm.o
 .debug_line    0x00000000       0xe0 build/obj/tm.o
 .debug_str     0x00000000      0x133 build/obj/tm.o
 .comment       0x00000000       0x71 build/obj/tm.o
 .ARM.attributes
                0x00000000       0x39 build/obj/tm.o
 .text          0x00000000        0x0 build/obj/uart.o
 .data          0x00000000        0x0 build/obj/uart.o
 .bss           0x00000000        0x0 build/obj/uart.o
 .debug_info    0x00000000       0x97 build/obj/uart.o
 .debug_abbrev  0x00000000       0x4b build/obj/uart.o
 .debug_aranges
                0x00000000       0x18 build/obj/uart.o
 .debug_line    0x00000000       0xe0 build/obj/uart.o
 .debug_str     0x00000000      0x135 build/obj/uart.o
 .comment       0x00000000       0x71 build/obj/uart.o
 .ARM.attributes
                0x00000000       0x39 build/obj/uart.o
 .text          0x00000000        0x0 build/obj/usb.o
 .data          0x00000000        0x0 build/obj/usb.o
 .bss           0x00000000        0x0 build/obj/usb.o
 .text.usbStop  0x00000000       0x60 build/obj/usb.o
 .text.usbDisableEndpointsI
                0x00000000       0x60 build/obj/usb.o
 .text.usbStallReceiveI
                0x00000000       0x50 build/obj/usb.o
 .text.usbStallTransmitI
                0x00000000       0x50 build/obj/usb.o
 .text          0x00000000        0x0 build/obj/poten.o
 .data          0x00000000        0x0 build/obj/poten.o
 .bss           0x00000000        0x0 build/obj/poten.o
 .text.getDigiralPotDevice
                0x00000000       0x10 build/obj/poten.o
 .text.initPotentiometers
                0x00000000       0x10 build/obj/poten.o
 .rodata.str1.4
                0x00000000       0x1c build/obj/poten.o
 .debug_info    0x00000000      0xa97 build/obj/poten.o
 .debug_abbrev  0x00000000      0x1c3 build/obj/poten.o
 .debug_loc     0x00000000       0x20 build/obj/poten.o
 .debug_aranges
                0x00000000       0x28 build/obj/poten.o
 .debug_ranges  0x00000000       0x18 build/obj/poten.o
 .debug_line    0x00000000      0x297 build/obj/poten.o
 .debug_str     0x00000000      0x54d build/obj/poten.o
 .comment       0x00000000       0x71 build/obj/poten.o
 .ARM.attributes
                0x00000000       0x39 build/obj/poten.o
 .debug_frame   0x00000000       0x3c build/obj/poten.o
 .text          0x00000000        0x0 build/obj/analog_chart.o
 .data          0x00000000        0x0 build/obj/analog_chart.o
 .bss           0x00000000        0x0 build/obj/analog_chart.o
 .text          0x00000000        0x0 build/obj/wave_analyzer.o
 .data          0x00000000        0x0 build/obj/wave_analyzer.o
 .bss           0x00000000        0x0 build/obj/wave_analyzer.o
 .text.ensureInitialized
                0x00000000       0x20 build/obj/wave_analyzer.o
 .text.setWaveMode
                0x00000000       0x20 build/obj/wave_analyzer.o
 .text.getWaveMode
                0x00000000       0x20 build/obj/wave_analyzer.o
 .text.getEventCounter
                0x00000000       0x20 build/obj/wave_analyzer.o
 .text.getWaveLowWidth
                0x00000000       0x20 build/obj/wave_analyzer.o
 .text.getWaveHighWidth
                0x00000000       0x40 build/obj/wave_analyzer.o
 .text.getWaveOffset
                0x00000000       0x20 build/obj/wave_analyzer.o
 .text.getSignalPeriod
                0x00000000       0x20 build/obj/wave_analyzer.o
 .text.reportWave
                0x00000000       0xe0 build/obj/wave_analyzer.o
 .text.getWidthEventTime
                0x00000000       0x20 build/obj/wave_analyzer.o
 .text.getPeriodEventTime
                0x00000000       0x20 build/obj/wave_analyzer.o
 .text.printWave
                0x00000000       0x20 build/obj/wave_analyzer.o
 .bss.waveBufferReported
                0x00000000        0x4 build/obj/wave_analyzer.o
 .text          0x00000000        0x0 build/obj/hardware.o
 .data          0x00000000        0x0 build/obj/hardware.o
 .bss           0x00000000        0x0 build/obj/hardware.o
 .text.initI2Cmodule
                0x00000000       0x60 build/obj/hardware.o
 .bss.adcState  0x00000000       0x30 build/obj/hardware.o
 .data.i2cfg    0x00000000        0xc build/obj/hardware.o
 .text          0x00000000        0x0 build/obj/adc_inputs.o
 .data          0x00000000        0x0 build/obj/adc_inputs.o
 .bss           0x00000000        0x0 build/obj/adc_inputs.o
 .text          0x00000000        0x0 build/obj/trigger_input.o
 .data          0x00000000        0x0 build/obj/trigger_input.o
 .bss           0x00000000        0x0 build/obj/trigger_input.o
 .text          0x00000000        0x0 build/obj/pin_repository.o
 .data          0x00000000        0x0 build/obj/pin_repository.o
 .bss           0x00000000        0x0 build/obj/pin_repository.o
 .text.registedFundamentralIoPin
                0x00000000       0xc0 build/obj/pin_repository.o
 .text          0x00000000        0x0 build/obj/io_pins.o
 .data          0x00000000        0x0 build/obj/io_pins.o
 .bss           0x00000000        0x0 build/obj/io_pins.o
 .text          0x00000000        0x0 build/obj/mcp3208.o
 .data          0x00000000        0x0 build/obj/mcp3208.o
 .bss           0x00000000        0x0 build/obj/mcp3208.o
 .text.getValue
                0x00000000       0x20 build/obj/mcp3208.o
 .text.createRequest
                0x00000000       0x40 build/obj/mcp3208.o
 .text.getMcp3208adc
                0x00000000       0x20 build/obj/mcp3208.o
 .text.requestAdcValue
                0x00000000       0x30 build/obj/mcp3208.o
 .text.requestAdcValueI
                0x00000000       0x30 build/obj/mcp3208.o
 .text.spiCallback
                0x00000000       0x80 build/obj/mcp3208.o
 .text.adc_in_out
                0x00000000       0x90 build/obj/mcp3208.o
 .text.init_adc_mcp3208
                0x00000000       0x50 build/obj/mcp3208.o
 .bss.adcEventCounter
                0x00000000        0x4 build/obj/mcp3208.o
 .bss.hack      0x00000000        0x4 build/obj/mcp3208.o
 .rodata.str1.4
                0x00000000       0x8c build/obj/mcp3208.o
 .rodata.spicfg
                0x00000000        0xc build/obj/mcp3208.o
 .bss.adcErrorCounter
                0x00000000        0x4 build/obj/mcp3208.o
 .debug_info    0x00000000      0xf2a build/obj/mcp3208.o
 .debug_abbrev  0x00000000      0x2a7 build/obj/mcp3208.o
 .debug_loc     0x00000000      0x3e9 build/obj/mcp3208.o
 .debug_aranges
                0x00000000       0x58 build/obj/mcp3208.o
 .debug_ranges  0x00000000       0x48 build/obj/mcp3208.o
 .debug_line    0x00000000      0x3b4 build/obj/mcp3208.o
 .debug_str     0x00000000      0x655 build/obj/mcp3208.o
 .comment       0x00000000       0x71 build/obj/mcp3208.o
 .ARM.attributes
                0x00000000       0x39 build/obj/mcp3208.o
 .debug_frame   0x00000000       0xf0 build/obj/mcp3208.o
 .text          0x00000000        0x0 build/obj/lcd_HD44780.o
 .data          0x00000000        0x0 build/obj/lcd_HD44780.o
 .bss           0x00000000        0x0 build/obj/lcd_HD44780.o
 .bss.lcd_HD44780_command
                0x00000000        0x1 build/obj/lcd_HD44780.o
 .text          0x00000000        0x0 build/obj/can_hw.o
 .data          0x00000000        0x0 build/obj/can_hw.o
 .bss           0x00000000        0x0 build/obj/can_hw.o
 .debug_info    0x00000000       0xac build/obj/can_hw.o
 .debug_abbrev  0x00000000       0x4b build/obj/can_hw.o
 .debug_aranges
                0x00000000       0x18 build/obj/can_hw.o
 .debug_line    0x00000000       0xe0 build/obj/can_hw.o
 .debug_str     0x00000000      0x148 build/obj/can_hw.o
 .comment       0x00000000       0x71 build/obj/can_hw.o
 .ARM.attributes
                0x00000000       0x39 build/obj/can_hw.o
 .text          0x00000000        0x0 build/obj/HIP9011.o
 .data          0x00000000        0x0 build/obj/HIP9011.o
 .bss           0x00000000        0x0 build/obj/HIP9011.o
 .debug_info    0x00000000       0xac build/obj/HIP9011.o
 .debug_abbrev  0x00000000       0x4b build/obj/HIP9011.o
 .debug_aranges
                0x00000000       0x18 build/obj/HIP9011.o
 .debug_line    0x00000000       0xe0 build/obj/HIP9011.o
 .debug_str     0x00000000      0x149 build/obj/HIP9011.o
 .comment       0x00000000       0x71 build/obj/HIP9011.o
 .ARM.attributes
                0x00000000       0x39 build/obj/HIP9011.o
 .text          0x00000000        0x0 build/obj/usbcfg.o
 .data          0x00000000        0x0 build/obj/usbcfg.o
 .bss           0x00000000        0x0 build/obj/usbcfg.o
 .text          0x00000000        0x0 build/obj/usbconsole.o
 .data          0x00000000        0x0 build/obj/usbconsole.o
 .bss           0x00000000        0x0 build/obj/usbconsole.o
 .text          0x00000000        0x0 build/obj/flash.o
 .data          0x00000000        0x0 build/obj/flash.o
 .bss           0x00000000        0x0 build/obj/flash.o
 .text.flashCompare
                0x00000000       0xe0 build/obj/flash.o
 .text          0x00000000        0x0 build/obj/rtc_helper.o
 .data          0x00000000        0x0 build/obj/rtc_helper.o
 .bss           0x00000000        0x0 build/obj/rtc_helper.o
 .text          0x00000000        0x0 build/obj/mmc_card.o
 .data          0x00000000        0x0 build/obj/mmc_card.o
 .bss           0x00000000        0x0 build/obj/mmc_card.o
 .text          0x00000000        0x0 build/obj/neo6m.o
 .data          0x00000000        0x0 build/obj/neo6m.o
 .bss           0x00000000        0x0 build/obj/neo6m.o
 .text          0x00000000        0x0 build/obj/gpio_helper.o
 .data          0x00000000        0x0 build/obj/gpio_helper.o
 .bss           0x00000000        0x0 build/obj/gpio_helper.o
 .text.initOutputPin
                0x00000000       0x20 build/obj/gpio_helper.o
 .text          0x00000000        0x0 build/obj/board_test.o
 .data          0x00000000        0x0 build/obj/board_test.o
 .bss           0x00000000        0x0 build/obj/board_test.o
 .bss.currentPin
                0x00000000        0x4 build/obj/board_test.o
 .bss.stepCoutner
                0x00000000        0x4 build/obj/board_test.o
 .bss.currentIndex
                0x00000000        0x4 build/obj/board_test.o
 .text          0x00000000        0x0 build/obj/wave_analyzer_hw.o
 .data          0x00000000        0x0 build/obj/wave_analyzer_hw.o
 .bss           0x00000000        0x0 build/obj/wave_analyzer_hw.o
 .text          0x00000000        0x0 build/obj/pwm_generator.o
 .data          0x00000000        0x0 build/obj/pwm_generator.o
 .bss           0x00000000        0x0 build/obj/pwm_generator.o
 .text.setSimplePwmDutyCycle
                0x00000000       0x10 build/obj/pwm_generator.o
 .text.startSimplePwm
                0x00000000       0x90 build/obj/pwm_generator.o
 .text          0x00000000        0x0 build/obj/electronic_throttle.o
 .data          0x00000000        0x0 build/obj/electronic_throttle.o
 .bss           0x00000000        0x0 build/obj/electronic_throttle.o
 .debug_info    0x00000000       0xac build/obj/electronic_throttle.o
 .debug_abbrev  0x00000000       0x4b build/obj/electronic_throttle.o
 .debug_aranges
                0x00000000       0x18 build/obj/electronic_throttle.o
 .debug_line    0x00000000       0xe0 build/obj/electronic_throttle.o
 .debug_str     0x00000000      0x158 build/obj/electronic_throttle.o
 .comment       0x00000000       0x71 build/obj/electronic_throttle.o
 .ARM.attributes
                0x00000000       0x39 build/obj/electronic_throttle.o
 .text          0x00000000        0x0 build/obj/idle_thread.o
 .data          0x00000000        0x0 build/obj/idle_thread.o
 .bss           0x00000000        0x0 build/obj/idle_thread.o
 .text.setIdleControlEnabled
                0x00000000       0x30 build/obj/idle_thread.o
 .text.setIdleValvePwm
                0x00000000       0x50 build/obj/idle_thread.o
 .text.setIdleRpmAction
                0x00000000       0x30 build/obj/idle_thread.o
 .text.ivThread
                0x00000000       0xb0 build/obj/idle_thread.o
 .text.getIdleSwitch
                0x00000000       0x10 build/obj/idle_thread.o
 .text.idleDebug
                0x00000000       0x30 build/obj/idle_thread.o
 .text.startIdleThread
                0x00000000      0x100 build/obj/idle_thread.o
 .bss.idleValve
                0x00000000      0xa18 build/obj/idle_thread.o
 .bss.idle      0x00000000       0x14 build/obj/idle_thread.o
 .bss.idleSwitchState
                0x00000000        0x4 build/obj/idle_thread.o
 .bss.isIdleControlActive
                0x00000000        0x4 build/obj/idle_thread.o
 .rodata.str1.4
                0x00000000       0xcc build/obj/idle_thread.o
 .bss.ivThreadStack
                0x00000000      0x2b8 build/obj/idle_thread.o
 .bss.logger    0x00000000      0x104 build/obj/idle_thread.o
 .debug_info    0x00000000     0x1759 build/obj/idle_thread.o
 .debug_abbrev  0x00000000      0x2c6 build/obj/idle_thread.o
 .debug_loc     0x00000000      0x226 build/obj/idle_thread.o
 .debug_aranges
                0x00000000       0x50 build/obj/idle_thread.o
 .debug_ranges  0x00000000       0x40 build/obj/idle_thread.o
 .debug_line    0x00000000      0x410 build/obj/idle_thread.o
 .debug_str     0x00000000     0x11bc build/obj/idle_thread.o
 .comment       0x00000000       0x71 build/obj/idle_thread.o
 .ARM.attributes
                0x00000000       0x39 build/obj/idle_thread.o
 .debug_frame   0x00000000       0xe0 build/obj/idle_thread.o
 .text          0x00000000        0x0 build/obj/injector_central.o
 .data          0x00000000        0x0 build/obj/injector_central.o
 .bss           0x00000000        0x0 build/obj/injector_central.o
 .text          0x00000000        0x0 build/obj/ignition_central.o
 .data          0x00000000        0x0 build/obj/ignition_central.o
 .bss           0x00000000        0x0 build/obj/ignition_central.o
 .text          0x00000000        0x0 build/obj/flash_main.o
 .data          0x00000000        0x0 build/obj/flash_main.o
 .bss           0x00000000        0x0 build/obj/flash_main.o
 .text          0x00000000        0x0 build/obj/malfunction_indicator.o
 .data          0x00000000        0x0 build/obj/malfunction_indicator.o
 .bss           0x00000000        0x0 build/obj/malfunction_indicator.o
 .text          0x00000000        0x0 build/obj/error_handling.o
 .data          0x00000000        0x0 build/obj/error_handling.o
 .bss           0x00000000        0x0 build/obj/error_handling.o
 .text          0x00000000        0x0 build/obj/map_averaging.o
 .data          0x00000000        0x0 build/obj/map_averaging.o
 .bss           0x00000000        0x0 build/obj/map_averaging.o
 .text          0x00000000        0x0 build/obj/map_multiplier_thread.o
 .data          0x00000000        0x0 build/obj/map_multiplier_thread.o
 .bss           0x00000000        0x0 build/obj/map_multiplier_thread.o
 .text.maThread
                0x00000000       0xa0 build/obj/map_multiplier_thread.o
 .text.mapCallback
                0x00000000       0xb0 build/obj/map_multiplier_thread.o
 .text.initMapAdjusterThread
                0x00000000       0x50 build/obj/map_multiplier_thread.o
 .bss.maThreadStack
                0x00000000      0x2b8 build/obj/map_multiplier_thread.o
 .rodata.str1.4
                0x00000000       0x74 build/obj/map_multiplier_thread.o
 .bss.timeAtNotRunning
                0x00000000        0x4 build/obj/map_multiplier_thread.o
 .data.isNewState
                0x00000000        0x4 build/obj/map_multiplier_thread.o
 .bss.logger    0x00000000      0x104 build/obj/map_multiplier_thread.o
 .debug_info    0x00000000      0xbac build/obj/map_multiplier_thread.o
 .debug_abbrev  0x00000000      0x276 build/obj/map_multiplier_thread.o
 .debug_loc     0x00000000      0x1a9 build/obj/map_multiplier_thread.o
 .debug_aranges
                0x00000000       0x30 build/obj/map_multiplier_thread.o
 .debug_ranges  0x00000000       0x20 build/obj/map_multiplier_thread.o
 .debug_line    0x00000000      0x2ea build/obj/map_multiplier_thread.o
 .debug_str     0x00000000      0x511 build/obj/map_multiplier_thread.o
 .comment       0x00000000       0x71 build/obj/map_multiplier_thread.o
 .ARM.attributes
                0x00000000       0x39 build/obj/map_multiplier_thread.o
 .debug_frame   0x00000000       0x84 build/obj/map_multiplier_thread.o
 .text          0x00000000        0x0 build/obj/alternatorController.o
 .data          0x00000000        0x0 build/obj/alternatorController.o
 .bss           0x00000000        0x0 build/obj/alternatorController.o
 .debug_info    0x00000000       0xac build/obj/alternatorController.o
 .debug_abbrev  0x00000000       0x4b build/obj/alternatorController.o
 .debug_aranges
                0x00000000       0x18 build/obj/alternatorController.o
 .debug_line    0x00000000       0xe0 build/obj/alternatorController.o
 .debug_str     0x00000000      0x159 build/obj/alternatorController.o
 .comment       0x00000000       0x71 build/obj/alternatorController.o
 .ARM.attributes
                0x00000000       0x39 build/obj/alternatorController.o
 .text          0x00000000        0x0 build/obj/map_adjuster.o
 .data          0x00000000        0x0 build/obj/map_adjuster.o
 .bss           0x00000000        0x0 build/obj/map_adjuster.o
 .debug_info    0x00000000       0x3a build/obj/map_adjuster.o
 .debug_abbrev  0x00000000       0x26 build/obj/map_adjuster.o
 .debug_aranges
                0x00000000       0x18 build/obj/map_adjuster.o
 .debug_line    0x00000000       0x1d build/obj/map_adjuster.o
 .debug_str     0x00000000       0xac build/obj/map_adjuster.o
 .comment       0x00000000       0x71 build/obj/map_adjuster.o
 .ARM.attributes
                0x00000000       0x39 build/obj/map_adjuster.o
 .text          0x00000000        0x0 build/obj/fuel_math.o
 .data          0x00000000        0x0 build/obj/fuel_math.o
 .bss           0x00000000        0x0 build/obj/fuel_math.o
 .text          0x00000000        0x0 build/obj/advance_map.o
 .data          0x00000000        0x0 build/obj/advance_map.o
 .bss           0x00000000        0x0 build/obj/advance_map.o
 .text          0x00000000        0x0 build/obj/engine_configuration.o
 .data          0x00000000        0x0 build/obj/engine_configuration.o
 .bss           0x00000000        0x0 build/obj/engine_configuration.o
 .text          0x00000000        0x0 build/obj/signal_executor.o
 .data          0x00000000        0x0 build/obj/signal_executor.o
 .bss           0x00000000        0x0 build/obj/signal_executor.o
 .text          0x00000000        0x0 build/obj/interpolation.o
 .data          0x00000000        0x0 build/obj/interpolation.o
 .bss           0x00000000        0x0 build/obj/interpolation.o
 .text.setTableValue
                0x00000000       0x20 build/obj/interpolation.o
 .data.needInterpolationLogging
                0x00000000        0x4 build/obj/interpolation.o
 .text          0x00000000        0x0 build/obj/malfunction_central.o
 .data          0x00000000        0x0 build/obj/malfunction_central.o
 .bss           0x00000000        0x0 build/obj/malfunction_central.o
 .text          0x00000000        0x0 build/obj/event_registry.o
 .data          0x00000000        0x0 build/obj/event_registry.o
 .bss           0x00000000        0x0 build/obj/event_registry.o
 .text          0x00000000        0x0 build/obj/idle_controller.o
 .data          0x00000000        0x0 build/obj/idle_controller.o
 .bss           0x00000000        0x0 build/obj/idle_controller.o
 .text.setIdleRpm
                0x00000000       0x40 build/obj/idle_controller.o
 .text.idleInit
                0x00000000       0x20 build/obj/idle_controller.o
 .text.min      0x00000000       0x10 build/obj/idle_controller.o
 .text.max      0x00000000       0x10 build/obj/idle_controller.o
 .text.setNewValue
                0x00000000       0x40 build/obj/idle_controller.o
 .text.changeValue
                0x00000000       0x20 build/obj/idle_controller.o
 .text.getIdle  0x00000000      0x120 build/obj/idle_controller.o
 .rodata.str1.4
                0x00000000       0x84 build/obj/idle_controller.o
 .text          0x00000000        0x0 build/obj/wave_chart.o
 .data          0x00000000        0x0 build/obj/wave_chart.o
 .bss           0x00000000        0x0 build/obj/wave_chart.o
 .text          0x00000000        0x0 build/obj/nmea.o
 .data          0x00000000        0x0 build/obj/nmea.o
 .bss           0x00000000        0x0 build/obj/nmea.o
 .text          0x00000000        0x0 build/obj/algo.o
 .data          0x00000000        0x0 build/obj/algo.o
 .bss           0x00000000        0x0 build/obj/algo.o
 .text          0x00000000        0x0 build/obj/signal_executor_single_timer_algo.o
 .data          0x00000000        0x0 build/obj/signal_executor_single_timer_algo.o
 .bss           0x00000000        0x0 build/obj/signal_executor_single_timer_algo.o
 .debug_info    0x00000000       0xac build/obj/signal_executor_single_timer_algo.o
 .debug_abbrev  0x00000000       0x4b build/obj/signal_executor_single_timer_algo.o
 .debug_aranges
                0x00000000       0x18 build/obj/signal_executor_single_timer_algo.o
 .debug_line    0x00000000       0xe0 build/obj/signal_executor_single_timer_algo.o
 .debug_str     0x00000000      0x16b build/obj/signal_executor_single_timer_algo.o
 .comment       0x00000000       0x71 build/obj/signal_executor_single_timer_algo.o
 .ARM.attributes
                0x00000000       0x39 build/obj/signal_executor_single_timer_algo.o
 .text          0x00000000        0x0 build/obj/avg_values.o
 .data          0x00000000        0x0 build/obj/avg_values.o
 .bss           0x00000000        0x0 build/obj/avg_values.o
 .text.avgFill  0x00000000       0x90 build/obj/avg_values.o
 .text.avgReset
                0x00000000       0x10 build/obj/avg_values.o
 .text.avgAddValue
                0x00000000       0x80 build/obj/avg_values.o
 .text.avgGetValueByIndexes
                0x00000000       0x40 build/obj/avg_values.o
 .text.avgGetValue
                0x00000000       0x70 build/obj/avg_values.o
 .text.avgGetValuesCount
                0x00000000       0x70 build/obj/avg_values.o
 .debug_info    0x00000000      0x358 build/obj/avg_values.o
 .debug_abbrev  0x00000000      0x15f build/obj/avg_values.o
 .debug_loc     0x00000000      0x47e build/obj/avg_values.o
 .debug_aranges
                0x00000000       0x48 build/obj/avg_values.o
 .debug_ranges  0x00000000       0x78 build/obj/avg_values.o
 .debug_line    0x00000000      0x101 build/obj/avg_values.o
 .debug_str     0x00000000      0x1b2 build/obj/avg_values.o
 .comment       0x00000000       0x71 build/obj/avg_values.o
 .ARM.attributes
                0x00000000       0x39 build/obj/avg_values.o
 .debug_frame   0x00000000       0x98 build/obj/avg_values.o
 .text          0x00000000        0x0 build/obj/tps.o
 .data          0x00000000        0x0 build/obj/tps.o
 .bss           0x00000000        0x0 build/obj/tps.o
 .text.saveTpsState
                0x00000000       0x90 build/obj/tps.o
 .text          0x00000000        0x0 build/obj/allsensors.o
 .data          0x00000000        0x0 build/obj/allsensors.o
 .bss           0x00000000        0x0 build/obj/allsensors.o
 .text          0x00000000        0x0 build/obj/maf.o
 .data          0x00000000        0x0 build/obj/maf.o
 .bss           0x00000000        0x0 build/obj/maf.o
 .text          0x00000000        0x0 build/obj/map.o
 .data          0x00000000        0x0 build/obj/map.o
 .bss           0x00000000        0x0 build/obj/map.o
 .text.getRawMap
                0x00000000       0x50 build/obj/map.o
 .text          0x00000000        0x0 build/obj/ego.o
 .data          0x00000000        0x0 build/obj/ego.o
 .bss           0x00000000        0x0 build/obj/ego.o
 .text          0x00000000        0x0 build/obj/voltage.o
 .data          0x00000000        0x0 build/obj/voltage.o
 .bss           0x00000000        0x0 build/obj/voltage.o
 .text          0x00000000        0x0 build/obj/thermistors.o
 .data          0x00000000        0x0 build/obj/thermistors.o
 .bss           0x00000000        0x0 build/obj/thermistors.o
 .text.getR1InVoltageDividor
                0x00000000       0x20 build/obj/thermistors.o
 .text.getVoutInVoltageDividor
                0x00000000       0x20 build/obj/thermistors.o
 .text.convertCelciustoKelvin
                0x00000000       0x20 build/obj/thermistors.o
 .text.convertCelciustoF
                0x00000000       0x30 build/obj/thermistors.o
 .text.convertFtoCelcius
                0x00000000       0x30 build/obj/thermistors.o
 .text.convertKelvinToFahrenheit
                0x00000000       0x10 build/obj/thermistors.o
 .text          0x00000000        0x0 build/obj/stm32_dma.o
 .data          0x00000000        0x0 build/obj/stm32_dma.o
 .bss           0x00000000        0x0 build/obj/stm32_dma.o
 .text          0x00000000        0x0 build/obj/hal_lld.o
 .data          0x00000000        0x0 build/obj/hal_lld.o
 .bss           0x00000000        0x0 build/obj/hal_lld.o
 .text          0x00000000        0x0 build/obj/adc_lld.o
 .data          0x00000000        0x0 build/obj/adc_lld.o
 .bss           0x00000000        0x0 build/obj/adc_lld.o
 .text.adc_lld_stop
                0x00000000       0x60 build/obj/adc_lld.o
 .text.adcSTM32EnableTSVREFE
                0x00000000       0x20 build/obj/adc_lld.o
 .text.adcSTM32DisableTSVREFE
                0x00000000       0x20 build/obj/adc_lld.o
 .text.adcSTM32EnableVBATE
                0x00000000       0x20 build/obj/adc_lld.o
 .text.adcSTM32DisableVBATE
                0x00000000       0x20 build/obj/adc_lld.o
 .text          0x00000000        0x0 build/obj/ext_lld_isr.o
 .data          0x00000000        0x0 build/obj/ext_lld_isr.o
 .bss           0x00000000        0x0 build/obj/ext_lld_isr.o
 .debug_info    0x00000000       0x97 build/obj/ext_lld_isr.o
 .debug_abbrev  0x00000000       0x4b build/obj/ext_lld_isr.o
 .debug_aranges
                0x00000000       0x18 build/obj/ext_lld_isr.o
 .debug_line    0x00000000       0xe0 build/obj/ext_lld_isr.o
 .debug_str     0x00000000      0x14c build/obj/ext_lld_isr.o
 .comment       0x00000000       0x71 build/obj/ext_lld_isr.o
 .ARM.attributes
                0x00000000       0x39 build/obj/ext_lld_isr.o
 .text          0x00000000        0x0 build/obj/can_lld.o
 .data          0x00000000        0x0 build/obj/can_lld.o
 .bss           0x00000000        0x0 build/obj/can_lld.o
 .text.can_lld_start
                0x00000000      0x110 build/obj/can_lld.o
 .text.can_lld_stop
                0x00000000       0xd0 build/obj/can_lld.o
 .text.can_lld_is_tx_empty
                0x00000000       0x40 build/obj/can_lld.o
 .text.can_lld_transmit
                0x00000000       0x80 build/obj/can_lld.o
 .text.can_lld_is_rx_nonempty
                0x00000000       0x50 build/obj/can_lld.o
 .text.can_lld_receive
                0x00000000       0xe0 build/obj/can_lld.o
 .text.can_lld_sleep
                0x00000000       0x10 build/obj/can_lld.o
 .text.can_lld_wakeup
                0x00000000       0x10 build/obj/can_lld.o
 .text.canSTM32SetFilters
                0x00000000       0x70 build/obj/can_lld.o
 .rodata.str1.4
                0x00000000       0xa4 build/obj/can_lld.o
 .text          0x00000000        0x0 build/obj/ext_lld.o
 .data          0x00000000        0x0 build/obj/ext_lld.o
 .bss           0x00000000        0x0 build/obj/ext_lld.o
 .debug_info    0x00000000       0x97 build/obj/ext_lld.o
 .debug_abbrev  0x00000000       0x4b build/obj/ext_lld.o
 .debug_aranges
                0x00000000       0x18 build/obj/ext_lld.o
 .debug_line    0x00000000       0xe0 build/obj/ext_lld.o
 .debug_str     0x00000000      0x144 build/obj/ext_lld.o
 .comment       0x00000000       0x71 build/obj/ext_lld.o
 .ARM.attributes
                0x00000000       0x39 build/obj/ext_lld.o
 .text          0x00000000        0x0 build/obj/mac_lld.o
 .data          0x00000000        0x0 build/obj/mac_lld.o
 .bss           0x00000000        0x0 build/obj/mac_lld.o
 .debug_info    0x00000000       0x97 build/obj/mac_lld.o
 .debug_abbrev  0x00000000       0x4b build/obj/mac_lld.o
 .debug_aranges
                0x00000000       0x18 build/obj/mac_lld.o
 .debug_line    0x00000000       0xe0 build/obj/mac_lld.o
 .debug_str     0x00000000      0x144 build/obj/mac_lld.o
 .comment       0x00000000       0x71 build/obj/mac_lld.o
 .ARM.attributes
                0x00000000       0x39 build/obj/mac_lld.o
 .text          0x00000000        0x0 build/obj/sdc_lld.o
 .data          0x00000000        0x0 build/obj/sdc_lld.o
 .bss           0x00000000        0x0 build/obj/sdc_lld.o
 .debug_info    0x00000000       0x97 build/obj/sdc_lld.o
 .debug_abbrev  0x00000000       0x4b build/obj/sdc_lld.o
 .debug_aranges
                0x00000000       0x18 build/obj/sdc_lld.o
 .debug_line    0x00000000       0xe0 build/obj/sdc_lld.o
 .debug_str     0x00000000      0x144 build/obj/sdc_lld.o
 .comment       0x00000000       0x71 build/obj/sdc_lld.o
 .ARM.attributes
                0x00000000       0x39 build/obj/sdc_lld.o
 .text          0x00000000        0x0 build/obj/pal_lld.o
 .data          0x00000000        0x0 build/obj/pal_lld.o
 .bss           0x00000000        0x0 build/obj/pal_lld.o
 .text          0x00000000        0x0 build/obj/i2c_lld.o
 .data          0x00000000        0x0 build/obj/i2c_lld.o
 .bss           0x00000000        0x0 build/obj/i2c_lld.o
 .text.i2c_lld_serve_tx_end_irq
                0x00000000       0x50 build/obj/i2c_lld.o
 .text.i2c_lld_serve_rx_end_irq
                0x00000000       0x90 build/obj/i2c_lld.o
 .text.i2c_lld_start
                0x00000000      0x2f0 build/obj/i2c_lld.o
 .text.i2c_lld_stop
                0x00000000       0x50 build/obj/i2c_lld.o
 .text.i2c_lld_master_receive_timeout
                0x00000000      0x140 build/obj/i2c_lld.o
 .rodata.str1.4
                0x00000000      0x130 build/obj/i2c_lld.o
 .text          0x00000000        0x0 build/obj/usb_lld.o
 .data          0x00000000        0x0 build/obj/usb_lld.o
 .bss           0x00000000        0x0 build/obj/usb_lld.o
 .text.usb_lld_stop
                0x00000000       0x20 build/obj/usb_lld.o
 .text.usb_lld_disable_endpoints
                0x00000000       0x10 build/obj/usb_lld.o
 .text          0x00000000        0x0 build/obj/rtc_lld.o
 .data          0x00000000        0x0 build/obj/rtc_lld.o
 .bss           0x00000000        0x0 build/obj/rtc_lld.o
 .text.rtc_lld_set_alarm
                0x00000000       0x90 build/obj/rtc_lld.o
 .text.rtc_lld_get_alarm
                0x00000000       0x10 build/obj/rtc_lld.o
 .text.rtcSetPeriodicWakeup_v2
                0x00000000       0x80 build/obj/rtc_lld.o
 .text.rtcGetPeriodicWakeup_v2
                0x00000000       0x20 build/obj/rtc_lld.o
 .rodata.str1.4
                0x00000000       0x68 build/obj/rtc_lld.o
 .text          0x00000000        0x0 build/obj/spi_lld.o
 .data          0x00000000        0x0 build/obj/spi_lld.o
 .bss           0x00000000        0x0 build/obj/spi_lld.o
 .text.spi_lld_exchange
                0x00000000       0x50 build/obj/spi_lld.o
 .text.spi_lld_polled_exchange
                0x00000000       0x20 build/obj/spi_lld.o
 .text          0x00000000        0x0 build/obj/gpt_lld.o
 .data          0x00000000        0x0 build/obj/gpt_lld.o
 .bss           0x00000000        0x0 build/obj/gpt_lld.o
 .debug_info    0x00000000       0x97 build/obj/gpt_lld.o
 .debug_abbrev  0x00000000       0x4b build/obj/gpt_lld.o
 .debug_aranges
                0x00000000       0x18 build/obj/gpt_lld.o
 .debug_line    0x00000000       0xe0 build/obj/gpt_lld.o
 .debug_str     0x00000000      0x14a build/obj/gpt_lld.o
 .comment       0x00000000       0x71 build/obj/gpt_lld.o
 .ARM.attributes
                0x00000000       0x39 build/obj/gpt_lld.o
 .text          0x00000000        0x0 build/obj/icu_lld.o
 .data          0x00000000        0x0 build/obj/icu_lld.o
 .bss           0x00000000        0x0 build/obj/icu_lld.o
 .text          0x00000000        0x0 build/obj/pwm_lld.o
 .data          0x00000000        0x0 build/obj/pwm_lld.o
 .bss           0x00000000        0x0 build/obj/pwm_lld.o
 .text.pwm_lld_stop
                0x00000000       0x70 build/obj/pwm_lld.o
 .text.pwm_lld_enable_channel
                0x00000000       0x40 build/obj/pwm_lld.o
 .text.pwm_lld_disable_channel
                0x00000000       0x30 build/obj/pwm_lld.o
 .text          0x00000000        0x0 build/obj/serial_lld.o
 .data          0x00000000        0x0 build/obj/serial_lld.o
 .bss           0x00000000        0x0 build/obj/serial_lld.o
 .text.sd_lld_stop
                0x00000000       0x90 build/obj/serial_lld.o
 .text          0x00000000        0x0 build/obj/uart_lld.o
 .data          0x00000000        0x0 build/obj/uart_lld.o
 .bss           0x00000000        0x0 build/obj/uart_lld.o
 .debug_info    0x00000000       0x97 build/obj/uart_lld.o
 .debug_abbrev  0x00000000       0x4b build/obj/uart_lld.o
 .debug_aranges
                0x00000000       0x18 build/obj/uart_lld.o
 .debug_line    0x00000000       0xe0 build/obj/uart_lld.o
 .debug_str     0x00000000      0x14d build/obj/uart_lld.o
 .comment       0x00000000       0x71 build/obj/uart_lld.o
 .ARM.attributes
                0x00000000       0x39 build/obj/uart_lld.o
 .text          0x00000000        0x0 build/obj/board.o
 .data          0x00000000        0x0 build/obj/board.o
 .bss           0x00000000        0x0 build/obj/board.o
 .text          0x00000000        0x0 build/obj/fatfs_diskio.o
 .data          0x00000000        0x0 build/obj/fatfs_diskio.o
 .bss           0x00000000        0x0 build/obj/fatfs_diskio.o
 .text          0x00000000        0x0 build/obj/fatfs_syscall.o
 .data          0x00000000        0x0 build/obj/fatfs_syscall.o
 .bss           0x00000000        0x0 build/obj/fatfs_syscall.o
 .text          0x00000000        0x0 build/obj/ff.o
 .data          0x00000000        0x0 build/obj/ff.o
 .bss           0x00000000        0x0 build/obj/ff.o
 .text.f_read   0x00000000      0x1d0 build/obj/ff.o
 .text          0x00000000        0x0 build/obj/ccsbcs.o
 .data          0x00000000        0x0 build/obj/ccsbcs.o
 .bss           0x00000000        0x0 build/obj/ccsbcs.o
 .text          0x00000000        0x0 build/obj/trigger_central.o
 .data          0x00000000        0x0 build/obj/trigger_central.o
 .bss           0x00000000        0x0 build/obj/trigger_central.o
 .text          0x00000000        0x0 build/obj/trigger_mazda.o
 .data          0x00000000        0x0 build/obj/trigger_mazda.o
 .bss           0x00000000        0x0 build/obj/trigger_mazda.o
 .text          0x00000000        0x0 build/obj/trigger_structure.o
 .data          0x00000000        0x0 build/obj/trigger_structure.o
 .bss           0x00000000        0x0 build/obj/trigger_structure.o
 .text          0x00000000        0x0 build/obj/rpm_calculator.o
 .data          0x00000000        0x0 build/obj/rpm_calculator.o
 .bss           0x00000000        0x0 build/obj/rpm_calculator.o
 .text.getLastRpmEventTime
                0x00000000       0x10 build/obj/rpm_calculator.o
 .text          0x00000000        0x0 build/obj/pwm_generator_logic.o
 .data          0x00000000        0x0 build/obj/pwm_generator_logic.o
 .bss           0x00000000        0x0 build/obj/pwm_generator_logic.o
 .text          0x00000000        0x0 build/obj/signal_temp.o
 .data          0x00000000        0x0 build/obj/signal_temp.o
 .bss           0x00000000        0x0 build/obj/signal_temp.o
 .text          0x00000000        0x0 build/obj/signal_executor_sleep.o
 .data          0x00000000        0x0 build/obj/signal_executor_sleep.o
 .bss           0x00000000        0x0 build/obj/signal_executor_sleep.o
 .text          0x00000000        0x0 build/obj/signal_executor_single_timer.o
 .data          0x00000000        0x0 build/obj/signal_executor_single_timer.o
 .bss           0x00000000        0x0 build/obj/signal_executor_single_timer.o
 .debug_info    0x00000000       0xac build/obj/signal_executor_single_timer.o
 .debug_abbrev  0x00000000       0x4b build/obj/signal_executor_single_timer.o
 .debug_aranges
                0x00000000       0x18 build/obj/signal_executor_single_timer.o
 .debug_line    0x00000000       0xe0 build/obj/signal_executor_single_timer.o
 .debug_str     0x00000000      0x168 build/obj/signal_executor_single_timer.o
 .comment       0x00000000       0x71 build/obj/signal_executor_single_timer.o
 .ARM.attributes
                0x00000000       0x39 build/obj/signal_executor_single_timer.o
 .text          0x00000000        0x0 build/obj/signal_executor_hw_timer.o
 .data          0x00000000        0x0 build/obj/signal_executor_hw_timer.o
 .bss           0x00000000        0x0 build/obj/signal_executor_hw_timer.o
 .debug_info    0x00000000       0xac build/obj/signal_executor_hw_timer.o
 .debug_abbrev  0x00000000       0x4b build/obj/signal_executor_hw_timer.o
 .debug_aranges
                0x00000000       0x18 build/obj/signal_executor_hw_timer.o
 .debug_line    0x00000000       0xe0 build/obj/signal_executor_hw_timer.o
 .debug_str     0x00000000      0x164 build/obj/signal_executor_hw_timer.o
 .comment       0x00000000       0x71 build/obj/signal_executor_hw_timer.o
 .ARM.attributes
                0x00000000       0x39 build/obj/signal_executor_hw_timer.o
 .group         0x00000000        0x8 build/obj/ch.o
 .group         0x00000000        0x8 build/obj/ch.o
 .text          0x00000000     0x11ac build/obj/ch.o
 .data          0x00000000        0x0 build/obj/ch.o
 .bss           0x00000000        0x0 build/obj/ch.o
 .text._ZN10chibios_rt15ThreadReferenceC2EP6Thread
                0x00000000       0x28 build/obj/ch.o
 .rodata        0x00000000      0x130 build/obj/ch.o
 .text._ZN10chibios_rt15ThreadReferenceC2ERKS0_
                0x00000000       0x2c build/obj/ch.o
 .comment       0x00000000       0x71 build/obj/ch.o
 .ARM.attributes
                0x00000000       0x33 build/obj/ch.o
 .data          0x00000000        0x0 build/obj/trigger_decoder.o
 .data          0x00000000        0x0 build/obj/trigger_chrysler.o
 .bss           0x00000000        0x0 build/obj/trigger_chrysler.o
 .data          0x00000000        0x0 build/obj/trigger_gm.o
 .bss           0x00000000        0x0 build/obj/trigger_gm.o
 .data          0x00000000        0x0 build/obj/main_trigger_callback.o
 .data          0x00000000        0x0 build/obj/trigger_emulator.o
 .bss           0x00000000        0x0 build/obj/trigger_emulator.o
 .data          0x00000000        0x0 build/obj/rfi_perftest.o
 .data          0x00000000        0x0 build/obj/engine_emulator.o
 .data          0x00000000        0x0 build/obj/OutputSignalArray.o
 .bss           0x00000000        0x0 build/obj/OutputSignalArray.o
 .data          0x00000000        0x0 build/obj/trigger_emulator_algo.o
 .bss           0x00000000        0x0 build/obj/ford_aspire.o
 .data          0x00000000        0x0 build/obj/MiniCooperR50.o
 .bss           0x00000000        0x0 build/obj/MiniCooperR50.o
 .data          0x00000000        0x0 build/obj/ford_escort_gt.o
 .bss           0x00000000        0x0 build/obj/ford_escort_gt.o
 .data          0x00000000        0x0 build/obj/citroenBerlingoTU3JP.o
 .bss           0x00000000        0x0 build/obj/citroenBerlingoTU3JP.o
 .data          0x00000000        0x0 build/obj/saturn_ion.o
 .bss           0x00000000        0x0 build/obj/saturn_ion.o
 .data          0x00000000        0x0 build/obj/settings.o
 .data          0x00000000        0x0 build/obj/cyclic_buffer.o
 .bss           0x00000000        0x0 build/obj/cyclic_buffer.o
 .rodata        0x00000000        0x2 build/obj/cyclic_buffer.o
 .data          0x00000000        0x0 build/obj/efilib.o
 .data          0x00000000        0x0 build/obj/efilib2.o
 .bss           0x00000000        0x0 build/obj/efilib2.o
 .data          0x00000000        0x0 build/obj/LocalVersionHolder.o
 .bss           0x00000000        0x0 build/obj/LocalVersionHolder.o
 .data          0x00000000        0x0 build/obj/rusefi.o
 .data          0x00000000        0x0 build/obj/main.o
 .bss           0x00000000        0x0 build/obj/main.o
 .text          0x00000000        0x0 c:/chibistudio/tools/gnu tools arm embedded/4.7 2013q2/bin/../lib/gcc/arm-none-eabi/4.7.4/../../../../arm-none-eabi/lib/armv7e-m\libm.a(lib_a-s_fpclassify.o)
 .data          0x00000000        0x0 c:/chibistudio/tools/gnu tools arm embedded/4.7 2013q2/bin/../lib/gcc/arm-none-eabi/4.7.4/../../../../arm-none-eabi/lib/armv7e-m\libm.a(lib_a-s_fpclassify.o)
 .bss           0x00000000        0x0 c:/chibistudio/tools/gnu tools arm embedded/4.7 2013q2/bin/../lib/gcc/arm-none-eabi/4.7.4/../../../../arm-none-eabi/lib/armv7e-m\libm.a(lib_a-s_fpclassify.o)
 .text          0x00000000        0x0 c:/chibistudio/tools/gnu tools arm embedded/4.7 2013q2/bin/../lib/gcc/arm-none-eabi/4.7.4/../../../../arm-none-eabi/lib/armv7e-m\libm.a(lib_a-s_modf.o)
 .data          0x00000000        0x0 c:/chibistudio/tools/gnu tools arm embedded/4.7 2013q2/bin/../lib/gcc/arm-none-eabi/4.7.4/../../../../arm-none-eabi/lib/armv7e-m\libm.a(lib_a-s_modf.o)
 .bss           0x00000000        0x0 c:/chibistudio/tools/gnu tools arm embedded/4.7 2013q2/bin/../lib/gcc/arm-none-eabi/4.7.4/../../../../arm-none-eabi/lib/armv7e-m\libm.a(lib_a-s_modf.o)
 .text          0x00000000        0x0 c:/chibistudio/tools/gnu tools arm embedded/4.7 2013q2/bin/../lib/gcc/arm-none-eabi/4.7.4/../../../../arm-none-eabi/lib/armv7e-m\libm.a(lib_a-s_round.o)
 .data          0x00000000        0x0 c:/chibistudio/tools/gnu tools arm embedded/4.7 2013q2/bin/../lib/gcc/arm-none-eabi/4.7.4/../../../../arm-none-eabi/lib/armv7e-m\libm.a(lib_a-s_round.o)
 .bss           0x00000000        0x0 c:/chibistudio/tools/gnu tools arm embedded/4.7 2013q2/bin/../lib/gcc/arm-none-eabi/4.7.4/../../../../arm-none-eabi/lib/armv7e-m\libm.a(lib_a-s_round.o)
 .text          0x00000000        0x0 c:/chibistudio/tools/gnu tools arm embedded/4.7 2013q2/bin/../lib/gcc/arm-none-eabi/4.7.4/../../../../arm-none-eabi/lib/armv7e-m\libm.a(lib_a-w_log.o)
 .data          0x00000000        0x0 c:/chibistudio/tools/gnu tools arm embedded/4.7 2013q2/bin/../lib/gcc/arm-none-eabi/4.7.4/../../../../arm-none-eabi/lib/armv7e-m\libm.a(lib_a-w_log.o)
 .bss           0x00000000        0x0 c:/chibistudio/tools/gnu tools arm embedded/4.7 2013q2/bin/../lib/gcc/arm-none-eabi/4.7.4/../../../../arm-none-eabi/lib/armv7e-m\libm.a(lib_a-w_log.o)
 .text          0x00000000        0x0 c:/chibistudio/tools/gnu tools arm embedded/4.7 2013q2/bin/../lib/gcc/arm-none-eabi/4.7.4/../../../../arm-none-eabi/lib/armv7e-m\libm.a(lib_a-w_pow.o)
 .data          0x00000000        0x0 c:/chibistudio/tools/gnu tools arm embedded/4.7 2013q2/bin/../lib/gcc/arm-none-eabi/4.7.4/../../../../arm-none-eabi/lib/armv7e-m\libm.a(lib_a-w_pow.o)
 .bss           0x00000000        0x0 c:/chibistudio/tools/gnu tools arm embedded/4.7 2013q2/bin/../lib/gcc/arm-none-eabi/4.7.4/../../../../arm-none-eabi/lib/armv7e-m\libm.a(lib_a-w_pow.o)
 .text          0x00000000        0x0 c:/chibistudio/tools/gnu tools arm embedded/4.7 2013q2/bin/../lib/gcc/arm-none-eabi/4.7.4/../../../../arm-none-eabi/lib/armv7e-m\libm.a(lib_a-e_log.o)
 .data          0x00000000        0x0 c:/chibistudio/tools/gnu tools arm embedded/4.7 2013q2/bin/../lib/gcc/arm-none-eabi/4.7.4/../../../../arm-none-eabi/lib/armv7e-m\libm.a(lib_a-e_log.o)
 .bss           0x00000000        0x0 c:/chibistudio/tools/gnu tools arm embedded/4.7 2013q2/bin/../lib/gcc/arm-none-eabi/4.7.4/../../../../arm-none-eabi/lib/armv7e-m\libm.a(lib_a-e_log.o)
 .text          0x00000000        0x0 c:/chibistudio/tools/gnu tools arm embedded/4.7 2013q2/bin/../lib/gcc/arm-none-eabi/4.7.4/../../../../arm-none-eabi/lib/armv7e-m\libm.a(lib_a-e_pow.o)
 .data          0x00000000        0x0 c:/chibistudio/tools/gnu tools arm embedded/4.7 2013q2/bin/../lib/gcc/arm-none-eabi/4.7.4/../../../../arm-none-eabi/lib/armv7e-m\libm.a(lib_a-e_pow.o)
 .bss           0x00000000        0x0 c:/chibistudio/tools/gnu tools arm embedded/4.7 2013q2/bin/../lib/gcc/arm-none-eabi/4.7.4/../../../../arm-none-eabi/lib/armv7e-m\libm.a(lib_a-e_pow.o)
 .text          0x00000000        0x0 c:/chibistudio/tools/gnu tools arm embedded/4.7 2013q2/bin/../lib/gcc/arm-none-eabi/4.7.4/../../../../arm-none-eabi/lib/armv7e-m\libm.a(lib_a-e_sqrt.o)
 .data          0x00000000        0x0 c:/chibistudio/tools/gnu tools arm embedded/4.7 2013q2/bin/../lib/gcc/arm-none-eabi/4.7.4/../../../../arm-none-eabi/lib/armv7e-m\libm.a(lib_a-e_sqrt.o)
 .bss           0x00000000        0x0 c:/chibistudio/tools/gnu tools arm embedded/4.7 2013q2/bin/../lib/gcc/arm-none-eabi/4.7.4/../../../../arm-none-eabi/lib/armv7e-m\libm.a(lib_a-e_sqrt.o)
 .text          0x00000000        0x0 c:/chibistudio/tools/gnu tools arm embedded/4.7 2013q2/bin/../lib/gcc/arm-none-eabi/4.7.4/../../../../arm-none-eabi/lib/armv7e-m\libm.a(lib_a-s_fabs.o)
 .data          0x00000000        0x0 c:/chibistudio/tools/gnu tools arm embedded/4.7 2013q2/bin/../lib/gcc/arm-none-eabi/4.7.4/../../../../arm-none-eabi/lib/armv7e-m\libm.a(lib_a-s_fabs.o)
 .bss           0x00000000        0x0 c:/chibistudio/tools/gnu tools arm embedded/4.7 2013q2/bin/../lib/gcc/arm-none-eabi/4.7.4/../../../../arm-none-eabi/lib/armv7e-m\libm.a(lib_a-s_fabs.o)
 .text          0x00000000        0x0 c:/chibistudio/tools/gnu tools arm embedded/4.7 2013q2/bin/../lib/gcc/arm-none-eabi/4.7.4/../../../../arm-none-eabi/lib/armv7e-m\libm.a(lib_a-s_finite.o)
 .data          0x00000000        0x0 c:/chibistudio/tools/gnu tools arm embedded/4.7 2013q2/bin/../lib/gcc/arm-none-eabi/4.7.4/../../../../arm-none-eabi/lib/armv7e-m\libm.a(lib_a-s_finite.o)
 .bss           0x00000000        0x0 c:/chibistudio/tools/gnu tools arm embedded/4.7 2013q2/bin/../lib/gcc/arm-none-eabi/4.7.4/../../../../arm-none-eabi/lib/armv7e-m\libm.a(lib_a-s_finite.o)
 .text          0x00000000        0x0 c:/chibistudio/tools/gnu tools arm embedded/4.7 2013q2/bin/../lib/gcc/arm-none-eabi/4.7.4/../../../../arm-none-eabi/lib/armv7e-m\libm.a(lib_a-s_lib_ver.o)
 .data          0x00000000        0x0 c:/chibistudio/tools/gnu tools arm embedded/4.7 2013q2/bin/../lib/gcc/arm-none-eabi/4.7.4/../../../../arm-none-eabi/lib/armv7e-m\libm.a(lib_a-s_lib_ver.o)
 .bss           0x00000000        0x0 c:/chibistudio/tools/gnu tools arm embedded/4.7 2013q2/bin/../lib/gcc/arm-none-eabi/4.7.4/../../../../arm-none-eabi/lib/armv7e-m\libm.a(lib_a-s_lib_ver.o)
 .text          0x00000000        0x0 c:/chibistudio/tools/gnu tools arm embedded/4.7 2013q2/bin/../lib/gcc/arm-none-eabi/4.7.4/../../../../arm-none-eabi/lib/armv7e-m\libm.a(lib_a-s_matherr.o)
 .data          0x00000000        0x0 c:/chibistudio/tools/gnu tools arm embedded/4.7 2013q2/bin/../lib/gcc/arm-none-eabi/4.7.4/../../../../arm-none-eabi/lib/armv7e-m\libm.a(lib_a-s_matherr.o)
 .bss           0x00000000        0x0 c:/chibistudio/tools/gnu tools arm embedded/4.7 2013q2/bin/../lib/gcc/arm-none-eabi/4.7.4/../../../../arm-none-eabi/lib/armv7e-m\libm.a(lib_a-s_matherr.o)
 .text          0x00000000        0x0 c:/chibistudio/tools/gnu tools arm embedded/4.7 2013q2/bin/../lib/gcc/arm-none-eabi/4.7.4/../../../../arm-none-eabi/lib/armv7e-m\libm.a(lib_a-s_nan.o)
 .data          0x00000000        0x0 c:/chibistudio/tools/gnu tools arm embedded/4.7 2013q2/bin/../lib/gcc/arm-none-eabi/4.7.4/../../../../arm-none-eabi/lib/armv7e-m\libm.a(lib_a-s_nan.o)
 .bss           0x00000000        0x0 c:/chibistudio/tools/gnu tools arm embedded/4.7 2013q2/bin/../lib/gcc/arm-none-eabi/4.7.4/../../../../arm-none-eabi/lib/armv7e-m\libm.a(lib_a-s_nan.o)
 .text          0x00000000        0x0 c:/chibistudio/tools/gnu tools arm embedded/4.7 2013q2/bin/../lib/gcc/arm-none-eabi/4.7.4/../../../../arm-none-eabi/lib/armv7e-m\libm.a(lib_a-s_rint.o)
 .data          0x00000000        0x0 c:/chibistudio/tools/gnu tools arm embedded/4.7 2013q2/bin/../lib/gcc/arm-none-eabi/4.7.4/../../../../arm-none-eabi/lib/armv7e-m\libm.a(lib_a-s_rint.o)
 .bss           0x00000000        0x0 c:/chibistudio/tools/gnu tools arm embedded/4.7 2013q2/bin/../lib/gcc/arm-none-eabi/4.7.4/../../../../arm-none-eabi/lib/armv7e-m\libm.a(lib_a-s_rint.o)
 .text          0x00000000        0x0 c:/chibistudio/tools/gnu tools arm embedded/4.7 2013q2/bin/../lib/gcc/arm-none-eabi/4.7.4/../../../../arm-none-eabi/lib/armv7e-m\libm.a(lib_a-s_scalbn.o)
 .data          0x00000000        0x0 c:/chibistudio/tools/gnu tools arm embedded/4.7 2013q2/bin/../lib/gcc/arm-none-eabi/4.7.4/../../../../arm-none-eabi/lib/armv7e-m\libm.a(lib_a-s_scalbn.o)
 .bss           0x00000000        0x0 c:/chibistudio/tools/gnu tools arm embedded/4.7 2013q2/bin/../lib/gcc/arm-none-eabi/4.7.4/../../../../arm-none-eabi/lib/armv7e-m\libm.a(lib_a-s_scalbn.o)
 .text          0x00000000        0x0 c:/chibistudio/tools/gnu tools arm embedded/4.7 2013q2/bin/../lib/gcc/arm-none-eabi/4.7.4/../../../../arm-none-eabi/lib/armv7e-m\libm.a(lib_a-s_copysign.o)
 .data          0x00000000        0x0 c:/chibistudio/tools/gnu tools arm embedded/4.7 2013q2/bin/../lib/gcc/arm-none-eabi/4.7.4/../../../../arm-none-eabi/lib/armv7e-m\libm.a(lib_a-s_copysign.o)
 .bss           0x00000000        0x0 c:/chibistudio/tools/gnu tools arm embedded/4.7 2013q2/bin/../lib/gcc/arm-none-eabi/4.7.4/../../../../arm-none-eabi/lib/armv7e-m\libm.a(lib_a-s_copysign.o)
 .data          0x00000000        0x0 c:/chibistudio/tools/gnu tools arm embedded/4.7 2013q2/bin/../lib/gcc/arm-none-eabi/4.7.4/armv7e-m\libgcc.a(_arm_addsubdf3.o)
 .bss           0x00000000        0x0 c:/chibistudio/tools/gnu tools arm embedded/4.7 2013q2/bin/../lib/gcc/arm-none-eabi/4.7.4/armv7e-m\libgcc.a(_arm_addsubdf3.o)
 .data          0x00000000        0x0 c:/chibistudio/tools/gnu tools arm embedded/4.7 2013q2/bin/../lib/gcc/arm-none-eabi/4.7.4/armv7e-m\libgcc.a(_arm_muldivdf3.o)
 .bss           0x00000000        0x0 c:/chibistudio/tools/gnu tools arm embedded/4.7 2013q2/bin/../lib/gcc/arm-none-eabi/4.7.4/armv7e-m\libgcc.a(_arm_muldivdf3.o)
 .data          0x00000000        0x0 c:/chibistudio/tools/gnu tools arm embedded/4.7 2013q2/bin/../lib/gcc/arm-none-eabi/4.7.4/armv7e-m\libgcc.a(_arm_cmpdf2.o)
 .bss           0x00000000        0x0 c:/chibistudio/tools/gnu tools arm embedded/4.7 2013q2/bin/../lib/gcc/arm-none-eabi/4.7.4/armv7e-m\libgcc.a(_arm_cmpdf2.o)
 .data          0x00000000        0x0 c:/chibistudio/tools/gnu tools arm embedded/4.7 2013q2/bin/../lib/gcc/arm-none-eabi/4.7.4/armv7e-m\libgcc.a(_arm_fixdfsi.o)
 .bss           0x00000000        0x0 c:/chibistudio/tools/gnu tools arm embedded/4.7 2013q2/bin/../lib/gcc/arm-none-eabi/4.7.4/armv7e-m\libgcc.a(_arm_fixdfsi.o)
 .data          0x00000000        0x0 c:/chibistudio/tools/gnu tools arm embedded/4.7 2013q2/bin/../lib/gcc/arm-none-eabi/4.7.4/armv7e-m\libgcc.a(_arm_truncdfsf2.o)
 .bss           0x00000000        0x0 c:/chibistudio/tools/gnu tools arm embedded/4.7 2013q2/bin/../lib/gcc/arm-none-eabi/4.7.4/armv7e-m\libgcc.a(_arm_truncdfsf2.o)
 .data          0x00000000        0x0 c:/chibistudio/tools/gnu tools arm embedded/4.7 2013q2/bin/../lib/gcc/arm-none-eabi/4.7.4/armv7e-m\libgcc.a(_arm_addsubsf3.o)
 .bss           0x00000000        0x0 c:/chibistudio/tools/gnu tools arm embedded/4.7 2013q2/bin/../lib/gcc/arm-none-eabi/4.7.4/armv7e-m\libgcc.a(_arm_addsubsf3.o)
 .data          0x00000000        0x0 c:/chibistudio/tools/gnu tools arm embedded/4.7 2013q2/bin/../lib/gcc/arm-none-eabi/4.7.4/armv7e-m\libgcc.a(_arm_muldivsf3.o)
 .bss           0x00000000        0x0 c:/chibistudio/tools/gnu tools arm embedded/4.7 2013q2/bin/../lib/gcc/arm-none-eabi/4.7.4/armv7e-m\libgcc.a(_arm_muldivsf3.o)
 .data          0x00000000        0x0 c:/chibistudio/tools/gnu tools arm embedded/4.7 2013q2/bin/../lib/gcc/arm-none-eabi/4.7.4/armv7e-m\libgcc.a(_arm_cmpsf2.o)
 .bss           0x00000000        0x0 c:/chibistudio/tools/gnu tools arm embedded/4.7 2013q2/bin/../lib/gcc/arm-none-eabi/4.7.4/armv7e-m\libgcc.a(_arm_cmpsf2.o)
 .data          0x00000000        0x0 c:/chibistudio/tools/gnu tools arm embedded/4.7 2013q2/bin/../lib/gcc/arm-none-eabi/4.7.4/armv7e-m\libgcc.a(_arm_fixsfsi.o)
 .bss           0x00000000        0x0 c:/chibistudio/tools/gnu tools arm embedded/4.7 2013q2/bin/../lib/gcc/arm-none-eabi/4.7.4/armv7e-m\libgcc.a(_arm_fixsfsi.o)
 .data          0x00000000        0x0 c:/chibistudio/tools/gnu tools arm embedded/4.7 2013q2/bin/../lib/gcc/arm-none-eabi/4.7.4/armv7e-m\libgcc.a(_aeabi_ldivmod.o)
 .bss           0x00000000        0x0 c:/chibistudio/tools/gnu tools arm embedded/4.7 2013q2/bin/../lib/gcc/arm-none-eabi/4.7.4/armv7e-m\libgcc.a(_aeabi_ldivmod.o)
 .data          0x00000000        0x0 c:/chibistudio/tools/gnu tools arm embedded/4.7 2013q2/bin/../lib/gcc/arm-none-eabi/4.7.4/armv7e-m\libgcc.a(_aeabi_uldivmod.o)
 .bss           0x00000000        0x0 c:/chibistudio/tools/gnu tools arm embedded/4.7 2013q2/bin/../lib/gcc/arm-none-eabi/4.7.4/armv7e-m\libgcc.a(_aeabi_uldivmod.o)
 .data          0x00000000        0x0 c:/chibistudio/tools/gnu tools arm embedded/4.7 2013q2/bin/../lib/gcc/arm-none-eabi/4.7.4/armv7e-m\libgcc.a(_fixsfdi.o)
 .bss           0x00000000        0x0 c:/chibistudio/tools/gnu tools arm embedded/4.7 2013q2/bin/../lib/gcc/arm-none-eabi/4.7.4/armv7e-m\libgcc.a(_fixsfdi.o)
 .data          0x00000000        0x0 c:/chibistudio/tools/gnu tools arm embedded/4.7 2013q2/bin/../lib/gcc/arm-none-eabi/4.7.4/armv7e-m\libgcc.a(_fixdfdi.o)
 .bss           0x00000000        0x0 c:/chibistudio/tools/gnu tools arm embedded/4.7 2013q2/bin/../lib/gcc/arm-none-eabi/4.7.4/armv7e-m\libgcc.a(_fixdfdi.o)
 .data          0x00000000        0x0 c:/chibistudio/tools/gnu tools arm embedded/4.7 2013q2/bin/../lib/gcc/arm-none-eabi/4.7.4/armv7e-m\libgcc.a(_fixunssfdi.o)
 .bss           0x00000000        0x0 c:/chibistudio/tools/gnu tools arm embedded/4.7 2013q2/bin/../lib/gcc/arm-none-eabi/4.7.4/armv7e-m\libgcc.a(_fixunssfdi.o)
 .data          0x00000000        0x0 c:/chibistudio/tools/gnu tools arm embedded/4.7 2013q2/bin/../lib/gcc/arm-none-eabi/4.7.4/armv7e-m\libgcc.a(_fixunsdfdi.o)
 .bss           0x00000000        0x0 c:/chibistudio/tools/gnu tools arm embedded/4.7 2013q2/bin/../lib/gcc/arm-none-eabi/4.7.4/armv7e-m\libgcc.a(_fixunsdfdi.o)
 .data          0x00000000        0x0 c:/chibistudio/tools/gnu tools arm embedded/4.7 2013q2/bin/../lib/gcc/arm-none-eabi/4.7.4/armv7e-m\libgcc.a(bpabi.o)
 .bss           0x00000000        0x0 c:/chibistudio/tools/gnu tools arm embedded/4.7 2013q2/bin/../lib/gcc/arm-none-eabi/4.7.4/armv7e-m\libgcc.a(bpabi.o)
 .data          0x00000000        0x0 c:/chibistudio/tools/gnu tools arm embedded/4.7 2013q2/bin/../lib/gcc/arm-none-eabi/4.7.4/armv7e-m\libgcc.a(_dvmd_tls.o)
 .bss           0x00000000        0x0 c:/chibistudio/tools/gnu tools arm embedded/4.7 2013q2/bin/../lib/gcc/arm-none-eabi/4.7.4/armv7e-m\libgcc.a(_dvmd_tls.o)
 .data          0x00000000        0x0 c:/chibistudio/tools/gnu tools arm embedded/4.7 2013q2/bin/../lib/gcc/arm-none-eabi/4.7.4/armv7e-m\libgcc.a(_arm_fixunsdfsi.o)
 .bss           0x00000000        0x0 c:/chibistudio/tools/gnu tools arm embedded/4.7 2013q2/bin/../lib/gcc/arm-none-eabi/4.7.4/armv7e-m\libgcc.a(_arm_fixunsdfsi.o)
 .data          0x00000000        0x0 c:/chibistudio/tools/gnu tools arm embedded/4.7 2013q2/bin/../lib/gcc/arm-none-eabi/4.7.4/armv7e-m\libgcc.a(_divdi3.o)
 .bss           0x00000000        0x0 c:/chibistudio/tools/gnu tools arm embedded/4.7 2013q2/bin/../lib/gcc/arm-none-eabi/4.7.4/armv7e-m\libgcc.a(_divdi3.o)
 .ARM.extab     0x00000000        0x0 c:/chibistudio/tools/gnu tools arm embedded/4.7 2013q2/bin/../lib/gcc/arm-none-eabi/4.7.4/armv7e-m\libgcc.a(_divdi3.o)
 .data          0x00000000        0x0 c:/chibistudio/tools/gnu tools arm embedded/4.7 2013q2/bin/../lib/gcc/arm-none-eabi/4.7.4/armv7e-m\libgcc.a(_udivdi3.o)
 .bss           0x00000000        0x0 c:/chibistudio/tools/gnu tools arm embedded/4.7 2013q2/bin/../lib/gcc/arm-none-eabi/4.7.4/armv7e-m\libgcc.a(_udivdi3.o)
 .ARM.extab     0x00000000        0x0 c:/chibistudio/tools/gnu tools arm embedded/4.7 2013q2/bin/../lib/gcc/arm-none-eabi/4.7.4/armv7e-m\libgcc.a(_udivdi3.o)
 .text          0x00000000        0x0 c:/chibistudio/tools/gnu tools arm embedded/4.7 2013q2/bin/../lib/gcc/arm-none-eabi/4.7.4/../../../../arm-none-eabi/lib/armv7e-m\libc.a(lib_a-errno.o)
 .data          0x00000000        0x0 c:/chibistudio/tools/gnu tools arm embedded/4.7 2013q2/bin/../lib/gcc/arm-none-eabi/4.7.4/../../../../arm-none-eabi/lib/armv7e-m\libc.a(lib_a-errno.o)
 .bss           0x00000000        0x0 c:/chibistudio/tools/gnu tools arm embedded/4.7 2013q2/bin/../lib/gcc/arm-none-eabi/4.7.4/../../../../arm-none-eabi/lib/armv7e-m\libc.a(lib_a-errno.o)
 .text          0x00000000        0x0 c:/chibistudio/tools/gnu tools arm embedded/4.7 2013q2/bin/../lib/gcc/arm-none-eabi/4.7.4/../../../../arm-none-eabi/lib/armv7e-m\libc.a(lib_a-impure.o)
 .data          0x00000000        0x0 c:/chibistudio/tools/gnu tools arm embedded/4.7 2013q2/bin/../lib/gcc/arm-none-eabi/4.7.4/../../../../arm-none-eabi/lib/armv7e-m\libc.a(lib_a-impure.o)
 .bss           0x00000000        0x0 c:/chibistudio/tools/gnu tools arm embedded/4.7 2013q2/bin/../lib/gcc/arm-none-eabi/4.7.4/../../../../arm-none-eabi/lib/armv7e-m\libc.a(lib_a-impure.o)
 .rodata._global_impure_ptr
                0x00000000        0x4 c:/chibistudio/tools/gnu tools arm embedded/4.7 2013q2/bin/../lib/gcc/arm-none-eabi/4.7.4/../../../../arm-none-eabi/lib/armv7e-m\libc.a(lib_a-impure.o)
 .text          0x00000000        0x0 c:/chibistudio/tools/gnu tools arm embedded/4.7 2013q2/bin/../lib/gcc/arm-none-eabi/4.7.4/../../../../arm-none-eabi/lib/armv7e-m\libc.a(lib_a-lcltime_r.o)
 .data          0x00000000        0x0 c:/chibistudio/tools/gnu tools arm embedded/4.7 2013q2/bin/../lib/gcc/arm-none-eabi/4.7.4/../../../../arm-none-eabi/lib/armv7e-m\libc.a(lib_a-lcltime_r.o)
 .bss           0x00000000        0x0 c:/chibistudio/tools/gnu tools arm embedded/4.7 2013q2/bin/../lib/gcc/arm-none-eabi/4.7.4/../../../../arm-none-eabi/lib/armv7e-m\libc.a(lib_a-lcltime_r.o)
 .text          0x00000000        0x0 c:/chibistudio/tools/gnu tools arm embedded/4.7 2013q2/bin/../lib/gcc/arm-none-eabi/4.7.4/../../../../arm-none-eabi/lib/armv7e-m\libc.a(lib_a-memcpy.o)
 .data          0x00000000        0x0 c:/chibistudio/tools/gnu tools arm embedded/4.7 2013q2/bin/../lib/gcc/arm-none-eabi/4.7.4/../../../../arm-none-eabi/lib/armv7e-m\libc.a(lib_a-memcpy.o)
 .bss           0x00000000        0x0 c:/chibistudio/tools/gnu tools arm embedded/4.7 2013q2/bin/../lib/gcc/arm-none-eabi/4.7.4/../../../../arm-none-eabi/lib/armv7e-m\libc.a(lib_a-memcpy.o)
 .text          0x00000000        0x0 c:/chibistudio/tools/gnu tools arm embedded/4.7 2013q2/bin/../lib/gcc/arm-none-eabi/4.7.4/../../../../arm-none-eabi/lib/armv7e-m\libc.a(lib_a-memset.o)
 .data          0x00000000        0x0 c:/chibistudio/tools/gnu tools arm embedded/4.7 2013q2/bin/../lib/gcc/arm-none-eabi/4.7.4/../../../../arm-none-eabi/lib/armv7e-m\libc.a(lib_a-memset.o)
 .bss           0x00000000        0x0 c:/chibistudio/tools/gnu tools arm embedded/4.7 2013q2/bin/../lib/gcc/arm-none-eabi/4.7.4/../../../../arm-none-eabi/lib/armv7e-m\libc.a(lib_a-memset.o)
 .text          0x00000000        0x0 c:/chibistudio/tools/gnu tools arm embedded/4.7 2013q2/bin/../lib/gcc/arm-none-eabi/4.7.4/../../../../arm-none-eabi/lib/armv7e-m\libc.a(lib_a-mktime.o)
 .data          0x00000000        0x0 c:/chibistudio/tools/gnu tools arm embedded/4.7 2013q2/bin/../lib/gcc/arm-none-eabi/4.7.4/../../../../arm-none-eabi/lib/armv7e-m\libc.a(lib_a-mktime.o)
 .bss           0x00000000        0x0 c:/chibistudio/tools/gnu tools arm embedded/4.7 2013q2/bin/../lib/gcc/arm-none-eabi/4.7.4/../../../../arm-none-eabi/lib/armv7e-m\libc.a(lib_a-mktime.o)
 .text          0x00000000        0x0 c:/chibistudio/tools/gnu tools arm embedded/4.7 2013q2/bin/../lib/gcc/arm-none-eabi/4.7.4/../../../../arm-none-eabi/lib/armv7e-m\libc.a(lib_a-mktm_r.o)
 .data          0x00000000        0x0 c:/chibistudio/tools/gnu tools arm embedded/4.7 2013q2/bin/../lib/gcc/arm-none-eabi/4.7.4/../../../../arm-none-eabi/lib/armv7e-m\libc.a(lib_a-mktm_r.o)
 .bss           0x00000000        0x0 c:/chibistudio/tools/gnu tools arm embedded/4.7 2013q2/bin/../lib/gcc/arm-none-eabi/4.7.4/../../../../arm-none-eabi/lib/armv7e-m\libc.a(lib_a-mktm_r.o)
 .text          0x00000000        0x0 c:/chibistudio/tools/gnu tools arm embedded/4.7 2013q2/bin/../lib/gcc/arm-none-eabi/4.7.4/../../../../arm-none-eabi/lib/armv7e-m\libc.a(lib_a-strcat.o)
 .data          0x00000000        0x0 c:/chibistudio/tools/gnu tools arm embedded/4.7 2013q2/bin/../lib/gcc/arm-none-eabi/4.7.4/../../../../arm-none-eabi/lib/armv7e-m\libc.a(lib_a-strcat.o)
 .bss           0x00000000        0x0 c:/chibistudio/tools/gnu tools arm embedded/4.7 2013q2/bin/../lib/gcc/arm-none-eabi/4.7.4/../../../../arm-none-eabi/lib/armv7e-m\libc.a(lib_a-strcat.o)
 .text          0x00000000        0x0 c:/chibistudio/tools/gnu tools arm embedded/4.7 2013q2/bin/../lib/gcc/arm-none-eabi/4.7.4/../../../../arm-none-eabi/lib/armv7e-m\libc.a(lib_a-strchr.o)
 .data          0x00000000        0x0 c:/chibistudio/tools/gnu tools arm embedded/4.7 2013q2/bin/../lib/gcc/arm-none-eabi/4.7.4/../../../../arm-none-eabi/lib/armv7e-m\libc.a(lib_a-strchr.o)
 .bss           0x00000000        0x0 c:/chibistudio/tools/gnu tools arm embedded/4.7 2013q2/bin/../lib/gcc/arm-none-eabi/4.7.4/../../../../arm-none-eabi/lib/armv7e-m\libc.a(lib_a-strchr.o)
 .text          0x00000000        0x0 c:/chibistudio/tools/gnu tools arm embedded/4.7 2013q2/bin/../lib/gcc/arm-none-eabi/4.7.4/../../../../arm-none-eabi/lib/armv7e-m\libc.a(lib_a-strcpy.o)
 .data          0x00000000        0x0 c:/chibistudio/tools/gnu tools arm embedded/4.7 2013q2/bin/../lib/gcc/arm-none-eabi/4.7.4/../../../../arm-none-eabi/lib/armv7e-m\libc.a(lib_a-strcpy.o)
 .bss           0x00000000        0x0 c:/chibistudio/tools/gnu tools arm embedded/4.7 2013q2/bin/../lib/gcc/arm-none-eabi/4.7.4/../../../../arm-none-eabi/lib/armv7e-m\libc.a(lib_a-strcpy.o)
 .text          0x00000000        0x0 c:/chibistudio/tools/gnu tools arm embedded/4.7 2013q2/bin/../lib/gcc/arm-none-eabi/4.7.4/../../../../arm-none-eabi/lib/armv7e-m\libc.a(lib_a-strlen.o)
 .data          0x00000000        0x0 c:/chibistudio/tools/gnu tools arm embedded/4.7 2013q2/bin/../lib/gcc/arm-none-eabi/4.7.4/../../../../arm-none-eabi/lib/armv7e-m\libc.a(lib_a-strlen.o)
 .bss           0x00000000        0x0 c:/chibistudio/tools/gnu tools arm embedded/4.7 2013q2/bin/../lib/gcc/arm-none-eabi/4.7.4/../../../../arm-none-eabi/lib/armv7e-m\libc.a(lib_a-strlen.o)
 .text          0x00000000        0x0 c:/chibistudio/tools/gnu tools arm embedded/4.7 2013q2/bin/../lib/gcc/arm-none-eabi/4.7.4/../../../../arm-none-eabi/lib/armv7e-m\libc.a(lib_a-strncmp.o)
 .data          0x00000000        0x0 c:/chibistudio/tools/gnu tools arm embedded/4.7 2013q2/bin/../lib/gcc/arm-none-eabi/4.7.4/../../../../arm-none-eabi/lib/armv7e-m\libc.a(lib_a-strncmp.o)
 .bss           0x00000000        0x0 c:/chibistudio/tools/gnu tools arm embedded/4.7 2013q2/bin/../lib/gcc/arm-none-eabi/4.7.4/../../../../arm-none-eabi/lib/armv7e-m\libc.a(lib_a-strncmp.o)
 .text          0x00000000        0x0 c:/chibistudio/tools/gnu tools arm embedded/4.7 2013q2/bin/../lib/gcc/arm-none-eabi/4.7.4/../../../../arm-none-eabi/lib/armv7e-m\libc.a(lib_a-strrchr.o)
 .data          0x00000000        0x0 c:/chibistudio/tools/gnu tools arm embedded/4.7 2013q2/bin/../lib/gcc/arm-none-eabi/4.7.4/../../../../arm-none-eabi/lib/armv7e-m\libc.a(lib_a-strrchr.o)
 .bss           0x00000000        0x0 c:/chibistudio/tools/gnu tools arm embedded/4.7 2013q2/bin/../lib/gcc/arm-none-eabi/4.7.4/../../../../arm-none-eabi/lib/armv7e-m\libc.a(lib_a-strrchr.o)
 .text          0x00000000        0x0 c:/chibistudio/tools/gnu tools arm embedded/4.7 2013q2/bin/../lib/gcc/arm-none-eabi/4.7.4/../../../../arm-none-eabi/lib/armv7e-m\libc.a(lib_a-strstr.o)
 .data          0x00000000        0x0 c:/chibistudio/tools/gnu tools arm embedded/4.7 2013q2/bin/../lib/gcc/arm-none-eabi/4.7.4/../../../../arm-none-eabi/lib/armv7e-m\libc.a(lib_a-strstr.o)
 .bss           0x00000000        0x0 c:/chibistudio/tools/gnu tools arm embedded/4.7 2013q2/bin/../lib/gcc/arm-none-eabi/4.7.4/../../../../arm-none-eabi/lib/armv7e-m\libc.a(lib_a-strstr.o)
 .text          0x00000000        0x0 c:/chibistudio/tools/gnu tools arm embedded/4.7 2013q2/bin/../lib/gcc/arm-none-eabi/4.7.4/../../../../arm-none-eabi/lib/armv7e-m\libc.a(lib_a-tzlock.o)
 .data          0x00000000        0x0 c:/chibistudio/tools/gnu tools arm embedded/4.7 2013q2/bin/../lib/gcc/arm-none-eabi/4.7.4/../../../../arm-none-eabi/lib/armv7e-m\libc.a(lib_a-tzlock.o)
 .bss           0x00000000        0x0 c:/chibistudio/tools/gnu tools arm embedded/4.7 2013q2/bin/../lib/gcc/arm-none-eabi/4.7.4/../../../../arm-none-eabi/lib/armv7e-m\libc.a(lib_a-tzlock.o)
 .text          0x00000000        0x0 c:/chibistudio/tools/gnu tools arm embedded/4.7 2013q2/bin/../lib/gcc/arm-none-eabi/4.7.4/../../../../arm-none-eabi/lib/armv7e-m\libc.a(lib_a-tzvars.o)
 .data          0x00000000        0x0 c:/chibistudio/tools/gnu tools arm embedded/4.7 2013q2/bin/../lib/gcc/arm-none-eabi/4.7.4/../../../../arm-none-eabi/lib/armv7e-m\libc.a(lib_a-tzvars.o)
 .bss           0x00000000        0x0 c:/chibistudio/tools/gnu tools arm embedded/4.7 2013q2/bin/../lib/gcc/arm-none-eabi/4.7.4/../../../../arm-none-eabi/lib/armv7e-m\libc.a(lib_a-tzvars.o)
 .data._tzname  0x00000000        0x8 c:/chibistudio/tools/gnu tools arm embedded/4.7 2013q2/bin/../lib/gcc/arm-none-eabi/4.7.4/../../../../arm-none-eabi/lib/armv7e-m\libc.a(lib_a-tzvars.o)
 .bss._timezone
                0x00000000        0x4 c:/chibistudio/tools/gnu tools arm embedded/4.7 2013q2/bin/../lib/gcc/arm-none-eabi/4.7.4/../../../../arm-none-eabi/lib/armv7e-m\libc.a(lib_a-tzvars.o)
 .rodata.str1.4
                0x00000000        0x4 c:/chibistudio/tools/gnu tools arm embedded/4.7 2013q2/bin/../lib/gcc/arm-none-eabi/4.7.4/../../../../arm-none-eabi/lib/armv7e-m\libc.a(lib_a-tzvars.o)
 .text          0x00000000        0x0 c:/chibistudio/tools/gnu tools arm embedded/4.7 2013q2/bin/../lib/gcc/arm-none-eabi/4.7.4/../../../../arm-none-eabi/lib/armv7e-m\libc.a(lib_a-div.o)
 .data          0x00000000        0x0 c:/chibistudio/tools/gnu tools arm embedded/4.7 2013q2/bin/../lib/gcc/arm-none-eabi/4.7.4/../../../../arm-none-eabi/lib/armv7e-m\libc.a(lib_a-div.o)
 .bss           0x00000000        0x0 c:/chibistudio/tools/gnu tools arm embedded/4.7 2013q2/bin/../lib/gcc/arm-none-eabi/4.7.4/../../../../arm-none-eabi/lib/armv7e-m\libc.a(lib_a-div.o)
 .text          0x00000000        0x0 c:/chibistudio/tools/gnu tools arm embedded/4.7 2013q2/bin/../lib/gcc/arm-none-eabi/4.7.4/../../../../arm-none-eabi/lib/armv7e-m\libc.a(lib_a-gettzinfo.o)
 .data          0x00000000        0x0 c:/chibistudio/tools/gnu tools arm embedded/4.7 2013q2/bin/../lib/gcc/arm-none-eabi/4.7.4/../../../../arm-none-eabi/lib/armv7e-m\libc.a(lib_a-gettzinfo.o)
 .bss           0x00000000        0x0 c:/chibistudio/tools/gnu tools arm embedded/4.7 2013q2/bin/../lib/gcc/arm-none-eabi/4.7.4/../../../../arm-none-eabi/lib/armv7e-m\libc.a(lib_a-gettzinfo.o)
 .text          0x00000000        0x0 c:/chibistudio/tools/gnu tools arm embedded/4.7 2013q2/bin/../lib/gcc/arm-none-eabi/4.7.4/../../../../arm-none-eabi/lib/armv7e-m\libc.a(lib_a-memchr.o)
 .data          0x00000000        0x0 c:/chibistudio/tools/gnu tools arm embedded/4.7 2013q2/bin/../lib/gcc/arm-none-eabi/4.7.4/../../../../arm-none-eabi/lib/armv7e-m\libc.a(lib_a-memchr.o)
 .bss           0x00000000        0x0 c:/chibistudio/tools/gnu tools arm embedded/4.7 2013q2/bin/../lib/gcc/arm-none-eabi/4.7.4/../../../../arm-none-eabi/lib/armv7e-m\libc.a(lib_a-memchr.o)
 .text          0x00000000        0x0 c:/chibistudio/tools/gnu tools arm embedded/4.7 2013q2/bin/../lib/gcc/arm-none-eabi/4.7.4/../../../../arm-none-eabi/lib/armv7e-m\libc.a(lib_a-memcmp.o)
 .data          0x00000000        0x0 c:/chibistudio/tools/gnu tools arm embedded/4.7 2013q2/bin/../lib/gcc/arm-none-eabi/4.7.4/../../../../arm-none-eabi/lib/armv7e-m\libc.a(lib_a-memcmp.o)
 .bss           0x00000000        0x0 c:/chibistudio/tools/gnu tools arm embedded/4.7 2013q2/bin/../lib/gcc/arm-none-eabi/4.7.4/../../../../arm-none-eabi/lib/armv7e-m\libc.a(lib_a-memcmp.o)

Memory Configuration

Name             Origin             Length             Attributes
flash            0x08000000         0x00100000
ram              0x20000000         0x0001c000
ethram           0x2001c000         0x00004000
ccmram           0x10000000         0x00010000
*default*        0x00000000         0xffffffff

Linker script and memory map

LOAD build/obj/crt0.o
LOAD build/obj/vectors.o
LOAD build/obj/chcore.o
LOAD build/obj/chcore_v7m.o
LOAD build/obj/nvic.o
LOAD build/obj/chsys.o
LOAD build/obj/chdebug.o
LOAD build/obj/chlists.o
LOAD build/obj/chvt.o
LOAD build/obj/chschd.o
LOAD build/obj/chthreads.o
LOAD build/obj/chdynamic.o
LOAD build/obj/chregistry.o
LOAD build/obj/chsem.o
LOAD build/obj/chmtx.o
LOAD build/obj/chcond.o
LOAD build/obj/chevents.o
LOAD build/obj/chmsg.o
LOAD build/obj/chmboxes.o
LOAD build/obj/chqueues.o
LOAD build/obj/chmemcore.o
LOAD build/obj/chheap.o
LOAD build/obj/chmempools.o
LOAD build/obj/chprintf.o
LOAD build/obj/memstreams.o
LOAD build/obj/chrtclib.o
LOAD build/obj/data_buffer.o
LOAD build/obj/listener_array.o
LOAD build/obj/crc.o
LOAD build/obj/histogram.o
LOAD build/obj/eficonsole_logic.o
LOAD build/obj/wave_math.o
LOAD build/obj/audi_aan.o
LOAD build/obj/dodge_neon.o
LOAD build/obj/ford_fiesta.o
LOAD build/obj/ford_1995_inline_6.o
LOAD build/obj/nissan_primera.o
LOAD build/obj/mazda_miata_nb.o
LOAD build/obj/honda_accord.o
LOAD build/obj/snow_blower.o
LOAD build/obj/GY6_139QMB.o
LOAD build/obj/mazda_323.o
LOAD build/obj/eficonsole.o
LOAD build/obj/console_io.o
LOAD build/obj/status_loop.o
LOAD build/obj/tunerstudio_algo.o
LOAD build/obj/tunerstudio.o
LOAD build/obj/datalogging.o
LOAD build/obj/rfiutil.o
LOAD build/obj/hal.o
LOAD build/obj/adc.o
LOAD build/obj/can.o
LOAD build/obj/ext.o
LOAD build/obj/gpt.o
LOAD build/obj/i2c.o
LOAD build/obj/icu.o
LOAD build/obj/mac.o
LOAD build/obj/mmc_spi.o
LOAD build/obj/mmcsd.o
LOAD build/obj/pal.o
LOAD build/obj/pwm.o
LOAD build/obj/rtc.o
LOAD build/obj/sdc.o
LOAD build/obj/serial.o
LOAD build/obj/serial_usb.o
LOAD build/obj/spi.o
LOAD build/obj/tm.o
LOAD build/obj/uart.o
LOAD build/obj/usb.o
LOAD build/obj/poten.o
LOAD build/obj/analog_chart.o
LOAD build/obj/wave_analyzer.o
LOAD build/obj/hardware.o
LOAD build/obj/adc_inputs.o
LOAD build/obj/trigger_input.o
LOAD build/obj/pin_repository.o
LOAD build/obj/io_pins.o
LOAD build/obj/mcp3208.o
LOAD build/obj/lcd_HD44780.o
LOAD build/obj/can_hw.o
LOAD build/obj/HIP9011.o
LOAD build/obj/usbcfg.o
LOAD build/obj/usbconsole.o
LOAD build/obj/flash.o
LOAD build/obj/rtc_helper.o
LOAD build/obj/mmc_card.o
LOAD build/obj/neo6m.o
LOAD build/obj/gpio_helper.o
LOAD build/obj/board_test.o
LOAD build/obj/wave_analyzer_hw.o
LOAD build/obj/pwm_generator.o
LOAD build/obj/electronic_throttle.o
LOAD build/obj/idle_thread.o
LOAD build/obj/injector_central.o
LOAD build/obj/ignition_central.o
LOAD build/obj/flash_main.o
LOAD build/obj/malfunction_indicator.o
LOAD build/obj/error_handling.o
LOAD build/obj/map_averaging.o
LOAD build/obj/map_multiplier_thread.o
LOAD build/obj/alternatorController.o
LOAD build/obj/map_adjuster.o
LOAD build/obj/fuel_math.o
LOAD build/obj/advance_map.o
LOAD build/obj/engine_configuration.o
LOAD build/obj/signal_executor.o
LOAD build/obj/interpolation.o
LOAD build/obj/malfunction_central.o
LOAD build/obj/event_registry.o
LOAD build/obj/idle_controller.o
LOAD build/obj/wave_chart.o
LOAD build/obj/nmea.o
LOAD build/obj/algo.o
LOAD build/obj/signal_executor_single_timer_algo.o
LOAD build/obj/avg_values.o
LOAD build/obj/tps.o
LOAD build/obj/allsensors.o
LOAD build/obj/maf.o
LOAD build/obj/map.o
LOAD build/obj/ego.o
LOAD build/obj/voltage.o
LOAD build/obj/thermistors.o
LOAD build/obj/stm32_dma.o
LOAD build/obj/hal_lld.o
LOAD build/obj/adc_lld.o
LOAD build/obj/ext_lld_isr.o
LOAD build/obj/can_lld.o
LOAD build/obj/ext_lld.o
LOAD build/obj/mac_lld.o
LOAD build/obj/sdc_lld.o
LOAD build/obj/pal_lld.o
LOAD build/obj/i2c_lld.o
LOAD build/obj/usb_lld.o
LOAD build/obj/rtc_lld.o
LOAD build/obj/spi_lld.o
LOAD build/obj/gpt_lld.o
LOAD build/obj/icu_lld.o
LOAD build/obj/pwm_lld.o
LOAD build/obj/serial_lld.o
LOAD build/obj/uart_lld.o
LOAD build/obj/board.o
LOAD build/obj/fatfs_diskio.o
LOAD build/obj/fatfs_syscall.o
LOAD build/obj/ff.o
LOAD build/obj/ccsbcs.o
LOAD build/obj/trigger_central.o
LOAD build/obj/trigger_mazda.o
LOAD build/obj/trigger_structure.o
LOAD build/obj/rpm_calculator.o
LOAD build/obj/pwm_generator_logic.o
LOAD build/obj/signal_temp.o
LOAD build/obj/signal_executor_sleep.o
LOAD build/obj/signal_executor_single_timer.o
LOAD build/obj/signal_executor_hw_timer.o
LOAD build/obj/ch.o
LOAD build/obj/trigger_decoder.o
LOAD build/obj/trigger_chrysler.o
LOAD build/obj/trigger_gm.o
LOAD build/obj/main_trigger_callback.o
LOAD build/obj/trigger_emulator.o
LOAD build/obj/rfi_perftest.o
LOAD build/obj/engine_emulator.o
LOAD build/obj/OutputSignalArray.o
LOAD build/obj/trigger_emulator_algo.o
LOAD build/obj/ford_aspire.o
LOAD build/obj/MiniCooperR50.o
LOAD build/obj/ford_escort_gt.o
LOAD build/obj/citroenBerlingoTU3JP.o
LOAD build/obj/saturn_ion.o
LOAD build/obj/settings.o
LOAD build/obj/engine_controller.o
LOAD build/obj/cyclic_buffer.o
LOAD build/obj/efilib.o
LOAD build/obj/efilib2.o
LOAD build/obj/LocalVersionHolder.o
LOAD build/obj/engine_math.o
LOAD build/obj/rusefi.o
LOAD build/obj/main.o
LOAD c:/chibistudio/tools/gnu tools arm embedded/4.7 2013q2/bin/../lib/gcc/arm-none-eabi/4.7.4/../../../../arm-none-eabi/lib/armv7e-m\libstdc++.a
LOAD c:/chibistudio/tools/gnu tools arm embedded/4.7 2013q2/bin/../lib/gcc/arm-none-eabi/4.7.4/../../../../arm-none-eabi/lib/armv7e-m\libm.a
START GROUP
LOAD c:/chibistudio/tools/gnu tools arm embedded/4.7 2013q2/bin/../lib/gcc/arm-none-eabi/4.7.4/armv7e-m\libgcc.a
LOAD c:/chibistudio/tools/gnu tools arm embedded/4.7 2013q2/bin/../lib/gcc/arm-none-eabi/4.7.4/../../../../arm-none-eabi/lib/armv7e-m\libc.a
END GROUP
                0x00000400                __main_stack_size__ = 0x400
                0x00000400                __process_stack_size__ = 0x400
                0x20000000                __ram_start__ = ORIGIN (ram)
                0x0001c000                __ram_size__ = 0x1c000
                0x2001c000                __ram_end__ = (__ram_start__ + __ram_size__)
                0x00000000                . = 0x0
                0x00000000                _text = .

startup         0x08000000      0x188
 *(vectors)
 vectors        0x08000000      0x188 build/obj/vectors.o
                0x08000000                _vectors

constructors    0x08000188       0x14
                0x08000188                PROVIDE (__init_array_start, .)
 *(SORT(.init_array.*))
 *(.init_array)
 .init_array    0x08000188        0x4 build/obj/trigger_decoder.o
 .init_array    0x0800018c        0x4 build/obj/main_trigger_callback.o
 .init_array    0x08000190        0x4 build/obj/trigger_emulator_algo.o
 .init_array    0x08000194        0x4 build/obj/engine_controller.o
 .init_array    0x08000198        0x4 build/obj/engine_math.o
                0x0800019c                PROVIDE (__init_array_end, .)

destructors     0x0800019c        0x8
                0x0800019c                PROVIDE (__fini_array_start, .)
 *(.fini_array)
 .fini_array    0x0800019c        0x4 build/obj/trigger_decoder.o
 .fini_array    0x080001a0        0x4 build/obj/main_trigger_callback.o
 *(SORT(.fini_array.*))
                0x080001a4                PROVIDE (__fini_array_end, .)

.text           0x080001b0    0x25168
 *(.text.startup.*)
 *(.text)
 .text          0x080001b0      0x780 build/obj/trigger_decoder.o
                0x080001b0                isTriggerDecoderError
                0x080002b0                processTriggerEvent
                0x08000560                initializeSkippedToothTriggerShapeExt
                0x080006a8                initializeTriggerShape
                0x08000758                findTriggerZeroEventIndex
                0x080008a0                initTriggerDecoder
 .text          0x08000930      0x464 build/obj/trigger_chrysler.o
                0x08000930                configureNeonTriggerShape
 *fill*         0x08000d94        0xc 00
 .text          0x08000da0      0x1a4 build/obj/trigger_gm.o
                0x08000da0                configureGmTriggerShape
 *fill*         0x08000f44        0xc 00
 .text          0x08000f50      0x6b4 build/obj/main_trigger_callback.o
                0x080012a4                showMainHistogram
                0x080014ac                initMainEventListener
                0x08001560                isIgnitionTimingError
 *fill*         0x08001604        0xc 00
 .text          0x08001610       0xb4 build/obj/trigger_emulator.o
                0x08001610                initTriggerEmulator
 *fill*         0x080016c4        0xc 00
 .text          0x080016d0      0xc00 build/obj/rfi_perftest.o
                0x08002270                initTimePerfActions
 .text          0x080022d0      0x274 build/obj/engine_emulator.o
                0x080022d0                setDiag(int)
                0x08002314                emulate()
                0x08002428                startEmulator()
                0x08002534                initEngineEmulator
 *fill*         0x08002544        0xc 00
 .text          0x08002550       0xb4 build/obj/OutputSignalArray.o
                0x08002550                OutputSignalList::OutputSignalList()
                0x08002550                OutputSignalList::OutputSignalList()
                0x0800256c                OutputSignalList::clear()
                0x08002588                OutputSignalList::getSize()
                0x080025a0                OutputSignalList::add(io_pin_e)
 *fill*         0x08002604        0xc 00
 .text          0x08002610      0x21c build/obj/trigger_emulator_algo.o
                0x08002610                setTriggerEmulatorRPM(int)
                0x0800274c                initTriggerEmulatorLogic
 *fill*         0x0800282c        0x4 00
 .text          0x08002830      0x2d4 build/obj/ford_aspire.o
                0x08002970                setFordAspireEngineConfiguration
 *fill*         0x08002b04        0xc 00
 .text          0x08002b10       0x20 build/obj/MiniCooperR50.o
                0x08002b10                setMiniCooperR50
 .text          0x08002b30      0x164 build/obj/ford_escort_gt.o
                0x08002b30                setFordEscortGt
 *fill*         0x08002c94        0xc 00
 .text          0x08002ca0       0x64 build/obj/citroenBerlingoTU3JP.o
                0x08002ca0                setCitroenBerlingoTU3JPConfiguration
 *fill*         0x08002d04        0xc 00
 .text          0x08002d10       0x1c build/obj/saturn_ion.o
                0x08002d10                setSaturnIonEngineConfiguration
 *fill*         0x08002d2c        0x4 00
 .text          0x08002d30     0x1500 build/obj/settings.o
                0x08002db0                printFloatArray
                0x08002e44                getConfigurationName
                0x08002f2c                printConfiguration
                0x08003f5c                initSettings
 .text          0x08004230      0x630 build/obj/engine_controller.o
                0x080043c4                getTimeNowUs
                0x0800459c                getPinNameByAdcChannel
                0x08004778                initEngineContoller
 .text          0x08004860      0x1f8 build/obj/cyclic_buffer.o
                0x08004860                cyclic_buffer::cyclic_buffer()
                0x08004860                cyclic_buffer::cyclic_buffer()
                0x08004894                cyclic_buffer::cyclic_buffer(cyclic_buffer const&)
                0x08004894                cyclic_buffer::cyclic_buffer(cyclic_buffer const&)
                0x080048ec                cyclic_buffer::~cyclic_buffer()
                0x080048ec                cyclic_buffer::~cyclic_buffer()
                0x08004904                cyclic_buffer::operator=(cyclic_buffer const&)
                0x0800495c                cyclic_buffer::add(int)
                0x080049b0                cyclic_buffer::clear()
                0x080049cc                cyclic_buffer::sum(int)
 *fill*         0x08004a58        0x8 00
 .text          0x08004a60      0x204 build/obj/efilib.o
                0x08004a60                indexOf
                0x08004ab8                atoi
                0x08004b68                atoff
 *fill*         0x08004c64        0xc 00
 .text          0x08004c70       0x98 build/obj/efilib2.o
                0x08004c70                Overflow64Counter::Overflow64Counter()
                0x08004c70                Overflow64Counter::Overflow64Counter()
                0x08004c9c                Overflow64Counter::offer(unsigned long)
                0x08004cdc                Overflow64Counter::get()
 *fill*         0x08004d08        0x8 00
 .text          0x08004d10       0x6c build/obj/LocalVersionHolder.o
                0x08004d10                LocalVersionHolder::LocalVersionHolder()
                0x08004d10                LocalVersionHolder::LocalVersionHolder()
                0x08004d30                LocalVersionHolder::getVersion()
                0x08004d48                LocalVersionHolder::isOld()
 *fill*         0x08004d7c        0x4 00
 .text          0x08004d80      0xcc0 build/obj/engine_math.o
                0x08004d80                getOneDegreeTimeMs
                0x08004dc0                getOneDegreeTime
                0x08004dec                getCrankshaftRevolutionTime
                0x08004e18                fixAngle
                0x08004e9c                getEngineLoadT
                0x08004f0c                setSingleCoilDwell
                0x08004fb0                isCrankingRT
                0x08004fe4                initializeIgnitionActions
                0x080052e8                addFuelEvents
                0x080055c0                getSparkDwellMsT
                0x08005654                registerActuatorEventExt
                0x080057f0                cisnan
                0x0800581c                getCylinderId
                0x08005878                prepareOutputSignals
                0x080058e0                setTableBin
                0x0800594c                setFuelRpmBin
                0x08005974                setFuelLoadBin
                0x0800599c                setTimingRpmBin
                0x080059c4                setTimingLoadBin
 .text          0x08005a40      0x364 build/obj/rusefi.o
                0x08005a70                runRusEfi
                0x08005b00                systicks2ms
                0x08005b38                scheduleReset
                0x08005b7c                onFatalError
                0x08005bcc                DebugMonitorVector()
                0x08005bec                UsageFaultVector()
                0x08005c0c                BusFaultVector()
                0x08005c2c                HardFaultVector()
                0x08005c4c                chDbgPanic3
                0x08005cc4                chDbgStackOverflowPanic
                0x08005d1c                firmwareError
                0x08005d90                getRusEfiVersion
 *fill*         0x08005da4        0xc 00
 .text          0x08005db0       0x18 build/obj/main.o
                0x08005db0                main
 *fill*         0x08005dc8        0x8 00
 .text          0x08005dd0      0x370 c:/chibistudio/tools/gnu tools arm embedded/4.7 2013q2/bin/../lib/gcc/arm-none-eabi/4.7.4/armv7e-m\libgcc.a(_arm_addsubdf3.o)
                0x08005dd0                __aeabi_drsub
                0x08005dd8                __aeabi_dsub
                0x08005dd8                __subdf3
                0x08005ddc                __aeabi_dadd
                0x08005ddc                __adddf3
                0x08006054                __floatunsidf
                0x08006054                __aeabi_ui2d
                0x08006074                __floatsidf
                0x08006074                __aeabi_i2d
                0x08006098                __aeabi_f2d
                0x08006098                __extendsfdf2
                0x080060d4                __floatundidf
                0x080060d4                __aeabi_ul2d
                0x080060e4                __floatdidf
                0x080060e4                __aeabi_l2d
 .text          0x08006140      0x424 c:/chibistudio/tools/gnu tools arm embedded/4.7 2013q2/bin/../lib/gcc/arm-none-eabi/4.7.4/armv7e-m\libgcc.a(_arm_muldivdf3.o)
                0x08006140                __aeabi_dmul
                0x08006140                __muldf3
                0x08006394                __divdf3
                0x08006394                __aeabi_ddiv
 *fill*         0x08006564        0xc 00
 .text          0x08006570      0x110 c:/chibistudio/tools/gnu tools arm embedded/4.7 2013q2/bin/../lib/gcc/arm-none-eabi/4.7.4/armv7e-m\libgcc.a(_arm_cmpdf2.o)
                0x08006570                __gtdf2
                0x08006570                __gedf2
                0x08006578                __ltdf2
                0x08006578                __ledf2
                0x08006580                __nedf2
                0x08006580                __eqdf2
                0x08006580                __cmpdf2
                0x080065fc                __aeabi_cdrcmple
                0x0800660c                __aeabi_cdcmpeq
                0x0800660c                __aeabi_cdcmple
                0x0800661c                __aeabi_dcmpeq
                0x08006630                __aeabi_dcmplt
                0x08006644                __aeabi_dcmple
                0x08006658                __aeabi_dcmpge
                0x0800666c                __aeabi_dcmpgt
 .text          0x08006680       0x50 c:/chibistudio/tools/gnu tools arm embedded/4.7 2013q2/bin/../lib/gcc/arm-none-eabi/4.7.4/armv7e-m\libgcc.a(_arm_fixdfsi.o)
                0x08006680                __aeabi_d2iz
                0x08006680                __fixdfsi
 .text          0x080066d0       0xa0 c:/chibistudio/tools/gnu tools arm embedded/4.7 2013q2/bin/../lib/gcc/arm-none-eabi/4.7.4/armv7e-m\libgcc.a(_arm_truncdfsf2.o)
                0x080066d0                __truncdfsf2
                0x080066d0                __aeabi_d2f
 .text          0x08006770      0x21c c:/chibistudio/tools/gnu tools arm embedded/4.7 2013q2/bin/../lib/gcc/arm-none-eabi/4.7.4/armv7e-m\libgcc.a(_arm_addsubsf3.o)
                0x08006770                __aeabi_frsub
                0x08006778                __subsf3
                0x08006778                __aeabi_fsub
                0x0800677c                __aeabi_fadd
                0x0800677c                __addsf3
                0x080068dc                __aeabi_ui2f
                0x080068dc                __floatunsisf
                0x080068e4                __aeabi_i2f
                0x080068e4                __floatsisf
                0x08006900                __aeabi_ul2f
                0x08006900                __floatundisf
                0x08006910                __aeabi_l2f
                0x08006910                __floatdisf
 *fill*         0x0800698c        0x4 00
 .text          0x08006990      0x2a0 c:/chibistudio/tools/gnu tools arm embedded/4.7 2013q2/bin/../lib/gcc/arm-none-eabi/4.7.4/armv7e-m\libgcc.a(_arm_muldivsf3.o)
                0x08006990                __mulsf3
                0x08006990                __aeabi_fmul
                0x08006af8                __aeabi_fdiv
                0x08006af8                __divsf3
 .text          0x08006c30       0xec c:/chibistudio/tools/gnu tools arm embedded/4.7 2013q2/bin/../lib/gcc/arm-none-eabi/4.7.4/armv7e-m\libgcc.a(_arm_cmpsf2.o)
                0x08006c30                __gesf2
                0x08006c30                __gtsf2
                0x08006c38                __lesf2
                0x08006c38                __ltsf2
                0x08006c40                __nesf2
                0x08006c40                __eqsf2
                0x08006c40                __cmpsf2
                0x08006ca0                __aeabi_cfrcmple
                0x08006ca8                __aeabi_cfcmpeq
                0x08006ca8                __aeabi_cfcmple
                0x08006cb8                __aeabi_fcmpeq
                0x08006ccc                __aeabi_fcmplt
                0x08006ce0                __aeabi_fcmple
                0x08006cf4                __aeabi_fcmpge
                0x08006d08                __aeabi_fcmpgt
 *fill*         0x08006d1c        0x4 00
 .text          0x08006d20       0x4c c:/chibistudio/tools/gnu tools arm embedded/4.7 2013q2/bin/../lib/gcc/arm-none-eabi/4.7.4/armv7e-m\libgcc.a(_arm_fixsfsi.o)
                0x08006d20                __aeabi_f2iz
                0x08006d20                __fixsfsi
 *fill*         0x08006d6c        0x4 00
 .text          0x08006d70       0x38 c:/chibistudio/tools/gnu tools arm embedded/4.7 2013q2/bin/../lib/gcc/arm-none-eabi/4.7.4/armv7e-m\libgcc.a(_aeabi_ldivmod.o)
                0x08006d70                __aeabi_ldivmod
 *fill*         0x08006da8        0x8 00
 .text          0x08006db0       0x2c c:/chibistudio/tools/gnu tools arm embedded/4.7 2013q2/bin/../lib/gcc/arm-none-eabi/4.7.4/armv7e-m\libgcc.a(_aeabi_uldivmod.o)
                0x08006db0                __aeabi_uldivmod
 *fill*         0x08006ddc        0x4 00
 .text          0x08006de0       0x2c c:/chibistudio/tools/gnu tools arm embedded/4.7 2013q2/bin/../lib/gcc/arm-none-eabi/4.7.4/armv7e-m\libgcc.a(_fixsfdi.o)
                0x08006de0                __fixsfdi
                0x08006de0                __aeabi_f2lz
 *fill*         0x08006e0c        0x4 00
 .text          0x08006e10       0x34 c:/chibistudio/tools/gnu tools arm embedded/4.7 2013q2/bin/../lib/gcc/arm-none-eabi/4.7.4/armv7e-m\libgcc.a(_fixdfdi.o)
                0x08006e10                __fixdfdi
                0x08006e10                __aeabi_d2lz
 *fill*         0x08006e44        0xc 00
 .text          0x08006e50       0x48 c:/chibistudio/tools/gnu tools arm embedded/4.7 2013q2/bin/../lib/gcc/arm-none-eabi/4.7.4/armv7e-m\libgcc.a(_fixunssfdi.o)
                0x08006e50                __fixunssfdi
                0x08006e50                __aeabi_f2ulz
 *fill*         0x08006e98        0x8 00
 .text          0x08006ea0       0x44 c:/chibistudio/tools/gnu tools arm embedded/4.7 2013q2/bin/../lib/gcc/arm-none-eabi/4.7.4/armv7e-m\libgcc.a(_fixunsdfdi.o)
                0x08006ea0                __fixunsdfdi
                0x08006ea0                __aeabi_d2ulz
 *fill*         0x08006ee4        0xc 00
 .text          0x08006ef0       0x58 c:/chibistudio/tools/gnu tools arm embedded/4.7 2013q2/bin/../lib/gcc/arm-none-eabi/4.7.4/armv7e-m\libgcc.a(bpabi.o)
                0x08006ef0                __gnu_ldivmod_helper
                0x08006f1c                __gnu_uldivmod_helper
 *fill*         0x08006f48        0x8 00
 .text          0x08006f50        0x4 c:/chibistudio/tools/gnu tools arm embedded/4.7 2013q2/bin/../lib/gcc/arm-none-eabi/4.7.4/armv7e-m\libgcc.a(_dvmd_tls.o)
                0x08006f50                __aeabi_idiv0
                0x08006f50                __aeabi_ldiv0
 *fill*         0x08006f54        0xc 00
 .text          0x08006f60       0x40 c:/chibistudio/tools/gnu tools arm embedded/4.7 2013q2/bin/../lib/gcc/arm-none-eabi/4.7.4/armv7e-m\libgcc.a(_arm_fixunsdfsi.o)
                0x08006f60                __aeabi_d2uiz
                0x08006f60                __fixunsdfsi
 .text          0x08006fa0      0x2bc c:/chibistudio/tools/gnu tools arm embedded/4.7 2013q2/bin/../lib/gcc/arm-none-eabi/4.7.4/armv7e-m\libgcc.a(_divdi3.o)
                0x08006fa0                __divdi3
 *fill*         0x0800725c        0x4 00
 .text          0x08007260      0x288 c:/chibistudio/tools/gnu tools arm embedded/4.7 2013q2/bin/../lib/gcc/arm-none-eabi/4.7.4/armv7e-m\libgcc.a(_udivdi3.o)
                0x08007260                __udivdi3
 *(.text.*)
 *fill*         0x080074e8        0x8 00
 .text.__late_init
                0x080074f0       0x10 build/obj/crt0.o
                0x080074f0                __late_init
 .text._default_exit
                0x08007500       0x10 build/obj/crt0.o
                0x08007500                _default_exit
 .text.ResetHandler
                0x08007510      0x2c0 build/obj/crt0.o
                0x08007510                ResetHandler
 .text._unhandled_exception
                0x080077d0       0x10 build/obj/vectors.o
                0x080077d0                Vector58
                0x080077d0                VectorE8
                0x080077d0                Vector9C
                0x080077d0                Vector5C
                0x080077d0                NMIVector
                0x080077d0                Vector11C
                0x080077d0                Vector168
                0x080077d0                Vector110
                0x080077d0                VectorC8
                0x080077d0                VectorA8
                0x080077d0                Vector160
                0x080077d0                VectorEC
                0x080077d0                UsageFaultVector
                0x080077d0                DebugMonitorVector
                0x080077d0                Vector40
                0x080077d0                PendSVVector
                0x080077d0                Vector118
                0x080077d0                Vector64
                0x080077d0                VectorCC
                0x080077d0                Vector54
                0x080077d0                Vector138
                0x080077d0                Vector24
                0x080077d0                Vector178
                0x080077d0                BusFaultVector
                0x080077d0                VectorD0
                0x080077d0                VectorE4
                0x080077d0                HardFaultVector
                0x080077d0                Vector134
                0x080077d0                Vector100
                0x080077d0                VectorE0
                0x080077d0                VectorF4
                0x080077d0                MemManageVector
                0x080077d0                VectorC4
                0x080077d0                Vector180
                0x080077d0                Vector114
                0x080077d0                Vector164
                0x080077d0                Vector60
                0x080077d0                Vector1C
                0x080077d0                Vector17C
                0x080077d0                Vector48
                0x080077d0                Vector16C
                0x080077d0                Vector4C
                0x080077d0                Vector15C
                0x080077d0                Vector68
                0x080077d0                _unhandled_exception
                0x080077d0                Vector170
                0x080077d0                Vector104
                0x080077d0                Vector184
                0x080077d0                Vector10C
                0x080077d0                Vector50
                0x080077d0                Vector44
                0x080077d0                Vector28
                0x080077d0                Vector34
                0x080077d0                Vector20
                0x080077d0                Vector174
 .text.port_halt
                0x080077e0       0x10 build/obj/chcore.o
                0x080077e0                port_halt
 .text._port_switch_from_isr
                0x080077f0       0x10 build/obj/chcore_v7m.o
                0x080077f0                _port_switch_from_isr
 .text.SVCallVector
                0x08007800       0x30 build/obj/chcore_v7m.o
                0x08007800                SVCallVector
 .text._port_init
                0x08007830       0x40 build/obj/chcore_v7m.o
                0x08007830                _port_init
 .text._port_irq_epilogue
                0x08007870       0xb0 build/obj/chcore_v7m.o
                0x08007870                _port_irq_epilogue
 .text.SysTickVector
                0x08007920       0x30 build/obj/chcore_v7m.o
                0x08007920                SysTickVector
 .text._port_switch
                0x08007950       0x20 build/obj/chcore_v7m.o
                0x08007950                _port_switch
 .text._port_thread_start
                0x08007970       0x20 build/obj/chcore_v7m.o
                0x08007970                _port_thread_start
 .text.nvicEnableVector
                0x08007990       0x60 build/obj/nvic.o
                0x08007990                nvicEnableVector
 .text.nvicDisableVector
                0x080079f0       0x50 build/obj/nvic.o
                0x080079f0                nvicDisableVector
 .text.nvicSetSystemHandlerPriority
                0x08007a40       0x40 build/obj/nvic.o
                0x08007a40                nvicSetSystemHandlerPriority
 .text._idle_thread
                0x08007a80       0x20 build/obj/chsys.o
                0x08007a80                _idle_thread
 .text.chSysInit
                0x08007aa0       0x80 build/obj/chsys.o
                0x08007aa0                chSysInit
 .text.chSysTimerHandlerI
                0x08007b20       0x90 build/obj/chsys.o
                0x08007b20                chSysTimerHandlerI
 .text.chDbgPanic
                0x08007bb0       0x20 build/obj/chdebug.o
                0x08007bb0                chDbgPanic
 .text.chDbgCheckClassS
                0x08007bd0       0x30 build/obj/chdebug.o
                0x08007bd0                chDbgCheckClassS
 .text.chDbgCheckClassI
                0x08007c00       0x30 build/obj/chdebug.o
                0x08007c00                chDbgCheckClassI
 .text.dbg_check_leave_isr
                0x08007c30       0x50 build/obj/chdebug.o
                0x08007c30                dbg_check_leave_isr
 .text.dbg_check_enter_isr
                0x08007c80       0x50 build/obj/chdebug.o
                0x08007c80                dbg_check_enter_isr
 .text.dbg_check_unlock_from_isr
                0x08007cd0       0x40 build/obj/chdebug.o
                0x08007cd0                dbg_check_unlock_from_isr
 .text.dbg_check_lock_from_isr
                0x08007d10       0x40 build/obj/chdebug.o
                0x08007d10                dbg_check_lock_from_isr
 .text.dbg_check_unlock
                0x08007d50       0x40 build/obj/chdebug.o
                0x08007d50                dbg_check_unlock
 .text.dbg_check_lock
                0x08007d90       0x40 build/obj/chdebug.o
                0x08007d90                dbg_check_lock
 .text.dbg_check_enable
                0x08007dd0       0x30 build/obj/chdebug.o
                0x08007dd0                dbg_check_enable
 .text._vt_init
                0x08007e00       0x20 build/obj/chvt.o
                0x08007e00                _vt_init
 .text.chVTSetI
                0x08007e20       0x70 build/obj/chvt.o
                0x08007e20                chVTSetI
 .text.chVTResetI
                0x08007e90       0x60 build/obj/chvt.o
                0x08007e90                chVTResetI
 .text._scheduler_init
                0x08007ef0       0x20 build/obj/chschd.o
                0x08007ef0                _scheduler_init
 .text.chSchReadyI
                0x08007f10       0x50 build/obj/chschd.o
                0x08007f10                chSchReadyI
 .text.wakeup   0x08007f60       0x70 build/obj/chschd.o
 .text.chSchGoSleepS
                0x08007fd0       0x60 build/obj/chschd.o
                0x08007fd0                chSchGoSleepS
 .text.chSchGoSleepTimeoutS
                0x08008030       0x60 build/obj/chschd.o
                0x08008030                chSchGoSleepTimeoutS
 .text.chSchWakeupS
                0x08008090       0x60 build/obj/chschd.o
                0x08008090                chSchWakeupS
 .text.chSchDoRescheduleBehind
                0x080080f0       0x50 build/obj/chschd.o
                0x080080f0                chSchDoRescheduleBehind
 .text.chSchDoRescheduleAhead
                0x08008140       0x60 build/obj/chschd.o
                0x08008140                chSchDoRescheduleAhead
 .text.chSchRescheduleS
                0x080081a0       0x20 build/obj/chschd.o
                0x080081a0                chSchRescheduleS
 .text.chSchDoReschedule
                0x080081c0       0x20 build/obj/chschd.o
                0x080081c0                chSchDoReschedule
 .text._thread_init
                0x080081e0       0x60 build/obj/chthreads.o
                0x080081e0                _thread_init
 .text.chThdCreateI
                0x08008240       0x60 build/obj/chthreads.o
                0x08008240                chThdCreateI
 .text.chThdCreateStatic
                0x080082a0       0x50 build/obj/chthreads.o
                0x080082a0                chThdCreateStatic
 .text.chThdSleep
                0x080082f0       0x50 build/obj/chthreads.o
                0x080082f0                chThdSleep
 .text.chThdExitS
                0x08008340       0x60 build/obj/chthreads.o
                0x08008340                chThdExitS
 .text.chThdExit
                0x080083a0       0x20 build/obj/chthreads.o
                0x080083a0                chThdExit
 .text.chThdRelease
                0x080083c0       0x90 build/obj/chdynamic.o
                0x080083c0                chThdRelease
 .text.chRegFirstThread
                0x08008450       0x40 build/obj/chregistry.o
                0x08008450                chRegFirstThread
 .text.chRegNextThread
                0x08008490       0x60 build/obj/chregistry.o
                0x08008490                chRegNextThread
 .text.chSemInit
                0x080084f0       0x30 build/obj/chsem.o
                0x080084f0                chSemInit
 .text.chSemSignalI
                0x08008520       0x70 build/obj/chsem.o
                0x08008520                chSemSignalI
 .text.chMtxInit
                0x08008590       0x30 build/obj/chmtx.o
                0x08008590                chMtxInit
 .text.chMtxLockS
                0x080085c0      0x130 build/obj/chmtx.o
                0x080085c0                chMtxLockS
 .text.chMtxLock
                0x080086f0       0x30 build/obj/chmtx.o
                0x080086f0                chMtxLock
 .text.chMtxUnlock
                0x08008720       0xa0 build/obj/chmtx.o
                0x08008720                chMtxUnlock
 .text.chEvtSignalI
                0x080087c0       0x60 build/obj/chevents.o
                0x080087c0                chEvtSignalI
 .text.chEvtBroadcastFlagsI
                0x08008820       0x40 build/obj/chevents.o
                0x08008820                chEvtBroadcastFlagsI
 .text.qwait    0x08008860       0x30 build/obj/chqueues.o
 .text.chIQInit
                0x08008890       0x20 build/obj/chqueues.o
                0x08008890                chIQInit
 .text.chIQResetI
                0x080088b0       0x40 build/obj/chqueues.o
                0x080088b0                chIQResetI
 .text.chIQPutI
                0x080088f0       0x60 build/obj/chqueues.o
                0x080088f0                chIQPutI
 .text.chIQGetTimeout
                0x08008950       0x70 build/obj/chqueues.o
                0x08008950                chIQGetTimeout
 .text.chIQReadTimeout
                0x080089c0       0xb0 build/obj/chqueues.o
                0x080089c0                chIQReadTimeout
 .text.chOQInit
                0x08008a70       0x20 build/obj/chqueues.o
                0x08008a70                chOQInit
 .text.chOQResetI
                0x08008a90       0x40 build/obj/chqueues.o
                0x08008a90                chOQResetI
 .text.chOQPutTimeout
                0x08008ad0       0x70 build/obj/chqueues.o
                0x08008ad0                chOQPutTimeout
 .text.chOQGetI
                0x08008b40       0x50 build/obj/chqueues.o
                0x08008b40                chOQGetI
 .text.chOQWriteTimeout
                0x08008b90       0xb0 build/obj/chqueues.o
                0x08008b90                chOQWriteTimeout
 .text._core_init
                0x08008c40       0x30 build/obj/chmemcore.o
                0x08008c40                _core_init
 .text.chCoreAllocI
                0x08008c70       0x40 build/obj/chmemcore.o
                0x08008c70                chCoreAllocI
 .text.chCoreAlloc
                0x08008cb0       0x30 build/obj/chmemcore.o
                0x08008cb0                chCoreAlloc
 .text._heap_init
                0x08008ce0       0x30 build/obj/chheap.o
                0x08008ce0                _heap_init
 .text.chHeapAlloc
                0x08008d10       0x90 build/obj/chheap.o
                0x08008d10                chHeapAlloc
 .text.chHeapFree
                0x08008da0       0xc0 build/obj/chheap.o
                0x08008da0                chHeapFree
 .text.chPoolFreeI
                0x08008e60       0x30 build/obj/chmempools.o
                0x08008e60                chPoolFreeI
 .text.chPoolFree
                0x08008e90       0x30 build/obj/chmempools.o
                0x08008e90                chPoolFree
 .text.long_to_string_with_divisor
                0x08008ec0       0x90 build/obj/chprintf.o
 .text.ltoa     0x08008f50       0x10 build/obj/chprintf.o
 .text.ftoa     0x08008f60       0xe0 build/obj/chprintf.o
                0x08008f60                ftoa
 .text.chvprintf
                0x08009040      0x380 build/obj/chprintf.o
                0x08009040                chvprintf
 .text.put      0x080093c0       0x20 build/obj/memstreams.o
 .text.get      0x080093e0       0x20 build/obj/memstreams.o
 .text.reads    0x08009400       0x30 build/obj/memstreams.o
 .text.writes   0x08009430       0x30 build/obj/memstreams.o
 .text.msObjectInit
                0x08009460       0x20 build/obj/memstreams.o
                0x08009460                msObjectInit
 .text.stm32_rtc_bcd2tm
                0x08009480       0xc0 build/obj/chrtclib.o
 .text.stm32_rtc_tm2bcd
                0x08009540      0x100 build/obj/chrtclib.o
 .text.rtcGetTimeTm
                0x08009640       0x30 build/obj/chrtclib.o
                0x08009640                rtcGetTimeTm
 .text.rtcSetTimeTm
                0x08009670       0x30 build/obj/chrtclib.o
                0x08009670                rtcSetTimeTm
 .text.rtcGetTimeUnixSec
                0x080096a0       0x30 build/obj/chrtclib.o
                0x080096a0                rtcGetTimeUnixSec
 .text.rtcSetTimeUnixSec
                0x080096d0       0x40 build/obj/chrtclib.o
                0x080096d0                rtcSetTimeUnixSec
 .text.registerCallback
                0x08009710       0x40 build/obj/listener_array.o
                0x08009710                registerCallback
 .text.invokeJustArgCallbacks
                0x08009750       0x30 build/obj/listener_array.o
                0x08009750                invokeJustArgCallbacks
 .text.invokeIntIntCallbacks
                0x08009780       0x40 build/obj/listener_array.o
                0x08009780                invokeIntIntCallbacks
 .text.calc_crc
                0x080097c0       0xa0 build/obj/crc.o
                0x080097c0                calc_crc
 .text.initHistogramsModule
                0x08009860      0x1d0 build/obj/histogram.o
                0x08009860                initHistogramsModule
 .text.histogramGetIndex
                0x08009a30       0xb0 build/obj/histogram.o
                0x08009a30                histogramGetIndex
 .text.initHistogram
                0x08009ae0       0x50 build/obj/histogram.o
                0x08009ae0                initHistogram
 .text.hsAdd    0x08009b30       0x70 build/obj/histogram.o
                0x08009b30                hsAdd
 .text.hsReport
                0x08009ba0      0x290 build/obj/histogram.o
                0x08009ba0                hsReport
 .text.echo     0x08009e30       0x20 build/obj/eficonsole_logic.o
 .text.helpCommand
                0x08009e50       0x70 build/obj/eficonsole_logic.o
                0x08009e50                helpCommand
 .text.doAddAction
                0x08009ec0       0x60 build/obj/eficonsole_logic.o
 .text.resetConsoleActions
                0x08009f20       0x10 build/obj/eficonsole_logic.o
                0x08009f20                resetConsoleActions
 .text.addConsoleAction
                0x08009f30       0x10 build/obj/eficonsole_logic.o
                0x08009f30                addConsoleAction
 .text.addConsoleActionI
                0x08009f40       0x10 build/obj/eficonsole_logic.o
                0x08009f40                addConsoleActionI
 .text.addConsoleActionII
                0x08009f50       0x10 build/obj/eficonsole_logic.o
                0x08009f50                addConsoleActionII
 .text.addConsoleActionS
                0x08009f60       0x10 build/obj/eficonsole_logic.o
                0x08009f60                addConsoleActionS
 .text.addConsoleActionSSS
                0x08009f70       0x10 build/obj/eficonsole_logic.o
                0x08009f70                addConsoleActionSSS
 .text.addConsoleActionF
                0x08009f80       0x10 build/obj/eficonsole_logic.o
                0x08009f80                addConsoleActionF
 .text.handleActionWithParameter
                0x08009f90       0xd0 build/obj/eficonsole_logic.o
                0x08009f90                handleActionWithParameter
 .text.tokenLength
                0x0800a060       0x30 build/obj/eficonsole_logic.o
                0x0800a060                tokenLength
 .text.strEqual
                0x0800a090       0x90 build/obj/eficonsole_logic.o
                0x0800a090                strEqual
 .text.initConsoleLogic
                0x0800a120       0x50 build/obj/eficonsole_logic.o
                0x0800a120                initConsoleLogic
 .text.validateSecureLine
                0x0800a170       0x90 build/obj/eficonsole_logic.o
                0x0800a170                validateSecureLine
 .text.handleConsoleLine
                0x0800a200      0x1f0 build/obj/eficonsole_logic.o
                0x0800a200                handleConsoleLine
 .text.setDodgeNeonEngineConfiguration
                0x0800a3f0      0x160 build/obj/dodge_neon.o
                0x0800a3f0                setDodgeNeonEngineConfiguration
 .text.setFordFiestaDefaultEngineConfiguration
                0x0800a550       0x30 build/obj/ford_fiesta.o
                0x0800a550                setFordFiestaDefaultEngineConfiguration
 .text.setFordInline6
                0x0800a580      0x160 build/obj/ford_1995_inline_6.o
                0x0800a580                setFordInline6
 .text.setNissanPrimeraEngineConfiguration
                0x0800a6e0       0x20 build/obj/nissan_primera.o
                0x0800a6e0                setNissanPrimeraEngineConfiguration
 .text.setMazdaMiataNbEngineConfiguration
                0x0800a700      0x190 build/obj/mazda_miata_nb.o
                0x0800a700                setMazdaMiataNbEngineConfiguration
 .text.setHondaAccordConfiguration
                0x0800a890       0x20 build/obj/honda_accord.o
                0x0800a890                setHondaAccordConfiguration
 .text.setGy6139qmbDefaultEngineConfiguration
                0x0800a8b0       0x70 build/obj/GY6_139QMB.o
                0x0800a8b0                setGy6139qmbDefaultEngineConfiguration
 .text.setMazda323EngineConfiguration
                0x0800a920       0x30 build/obj/mazda_323.o
                0x0800a920                setMazda323EngineConfiguration
 .text.myfatal  0x0800a950       0x20 build/obj/eficonsole.o
 .text.sayHello
                0x0800a970      0x1d0 build/obj/eficonsole.o
 .text.fatal3   0x0800ab40       0x30 build/obj/eficonsole.o
                0x0800ab40                fatal3
 .text.sendOutConfirmation
                0x0800ab70       0x20 build/obj/eficonsole.o
                0x0800ab70                sendOutConfirmation
 .text.print    0x0800ab90       0x30 build/obj/eficonsole.o
                0x0800ab90                print
 .text.cmd_threads
                0x0800abc0       0x70 build/obj/eficonsole.o
 .text.initializeConsole
                0x0800ac30       0x70 build/obj/eficonsole.o
                0x0800ac30                initializeConsole
 .text.consolePutChar
                0x0800aca0       0x20 build/obj/console_io.o
                0x0800aca0                consolePutChar
 .text.consoleThreadThreadEntryPoint
                0x0800acc0       0xd0 build/obj/console_io.o
 .text.consoleOutputBuffer
                0x0800ad90       0x20 build/obj/console_io.o
                0x0800ad90                consoleOutputBuffer
 .text.startChibiosConsole
                0x0800adb0       0x40 build/obj/console_io.o
                0x0800adb0                startChibiosConsole
 .text.lockAnyContext
                0x0800adf0       0x30 build/obj/console_io.o
                0x0800adf0                lockAnyContext
 .text.lockOutputBuffer
                0x0800ae20       0x10 build/obj/console_io.o
                0x0800ae20                lockOutputBuffer
 .text.unlockAnyContext
                0x0800ae30       0x30 build/obj/console_io.o
                0x0800ae30                unlockAnyContext
 .text.unlockOutputBuffer
                0x0800ae60       0x10 build/obj/console_io.o
                0x0800ae60                unlockOutputBuffer
 .text.setWarningEnabled
                0x0800ae70       0x10 build/obj/status_loop.o
 .text.printStatus
                0x0800ae80       0x10 build/obj/status_loop.o
 .text.setFullLog
                0x0800ae90       0x50 build/obj/status_loop.o
                0x0800ae90                setFullLog
 .text.tsStatusThread
                0x0800aee0       0x30 build/obj/status_loop.o
 .text.showFuelMap
                0x0800af10       0xf0 build/obj/status_loop.o
 .text.reportSensorF
                0x0800b000       0x40 build/obj/status_loop.o
 .text.finishStatusLine
                0x0800b040       0x10 build/obj/status_loop.o
                0x0800b040                finishStatusLine
 .text.printSensors
                0x0800b050      0x190 build/obj/status_loop.o
                0x0800b050                printSensors
 .text.printState
                0x0800b1e0       0xa0 build/obj/status_loop.o
                0x0800b1e0                printState
 .text.onDbgPanic
                0x0800b280       0x10 build/obj/status_loop.o
                0x0800b280                onDbgPanic
 .text.hasFatalError
                0x0800b290       0x20 build/obj/status_loop.o
                0x0800b290                hasFatalError
 .text.updateDevConsoleState
                0x0800b2b0      0x150 build/obj/status_loop.o
                0x0800b2b0                updateDevConsoleState
 .text.updateHD44780lcd
                0x0800b400       0xf0 build/obj/status_loop.o
                0x0800b400                updateHD44780lcd
 .text.lcdThread
                0x0800b4f0       0x30 build/obj/status_loop.o
 .text.initStatusLoop
                0x0800b520       0xb0 build/obj/status_loop.o
                0x0800b520                initStatusLoop
 .text.startStatusThreads
                0x0800b5d0       0x50 build/obj/status_loop.o
                0x0800b5d0                startStatusThreads
 .text.getFullLog
                0x0800b620       0x10 build/obj/status_loop.o
                0x0800b620                getFullLog
 .text.handleQueryCommand
                0x0800b630       0x30 build/obj/tunerstudio_algo.o
                0x0800b630                handleQueryCommand
 .text.handleOutputChannelsCommand
                0x0800b660       0x30 build/obj/tunerstudio_algo.o
                0x0800b660                handleOutputChannelsCommand
 .text.handleTestCommand
                0x0800b690       0x20 build/obj/tunerstudio_algo.o
                0x0800b690                handleTestCommand
 .text.tunerStudioHandleCommand
                0x0800b6b0       0x90 build/obj/tunerstudio_algo.o
                0x0800b6b0                tunerStudioHandleCommand
 .text.tsThreadEntryPoint
                0x0800b740       0x60 build/obj/tunerstudio.o
 .text.tunerStudioWriteData
                0x0800b7a0       0x20 build/obj/tunerstudio.o
                0x0800b7a0                tunerStudioWriteData
 .text.getWorkingPageAddr
                0x0800b7c0       0x20 build/obj/tunerstudio.o
                0x0800b7c0                getWorkingPageAddr
 .text.getTunerStudioPageSize
                0x0800b7e0       0x20 build/obj/tunerstudio.o
                0x0800b7e0                getTunerStudioPageSize
 .text.printStats
                0x0800b800      0x100 build/obj/tunerstudio.o
 .text.tunerStudioDebug
                0x0800b900       0x20 build/obj/tunerstudio.o
                0x0800b900                tunerStudioDebug
 .text.handleValueWriteCommand
                0x0800b920       0xb0 build/obj/tunerstudio.o
                0x0800b920                handleValueWriteCommand
 .text.handlePageReadCommand
                0x0800b9d0       0x90 build/obj/tunerstudio.o
                0x0800b9d0                handlePageReadCommand
 .text.handleBurnCommand
                0x0800ba60       0xc0 build/obj/tunerstudio.o
                0x0800ba60                handleBurnCommand
 .text.syncTunerStudioCopy
                0x0800bb20       0x20 build/obj/tunerstudio.o
                0x0800bb20                syncTunerStudioCopy
 .text.startTunerStudioConnectivity
                0x0800bb40       0xb0 build/obj/tunerstudio.o
                0x0800bb40                startTunerStudioConnectivity
 .text.updateTunerStudioState
                0x0800bbf0       0x50 build/obj/tunerstudio.o
                0x0800bbf0                updateTunerStudioState
 .text.printWithLength
                0x0800bc40       0x80 build/obj/datalogging.o
 .text.getCaption
                0x0800bcc0       0x80 build/obj/datalogging.o
                0x0800bcc0                getCaption
 .text.resetLogging
                0x0800bd40       0x30 build/obj/datalogging.o
                0x0800bd40                resetLogging
 .text.printLine
                0x0800bd70       0x20 build/obj/datalogging.o
                0x0800bd70                printLine
 .text.initLoggingExt
                0x0800bd90       0x40 build/obj/datalogging.o
                0x0800bd90                initLoggingExt
 .text.initLogging
                0x0800bdd0       0x10 build/obj/datalogging.o
                0x0800bdd0                initLogging
 .text.scheduleLogging
                0x0800bde0       0x50 build/obj/datalogging.o
                0x0800bde0                scheduleLogging
 .text.loggingSize
                0x0800be30       0x10 build/obj/datalogging.o
                0x0800be30                loggingSize
 .text.append   0x0800be40      0x110 build/obj/datalogging.o
                0x0800be40                append
 .text.appendMsgPostfix
                0x0800bf50       0x10 build/obj/datalogging.o
                0x0800bf50                appendMsgPostfix
 .text.vappendPrintfI
                0x0800bf60       0x30 build/obj/datalogging.o
 .text.vappendPrintf
                0x0800bf90       0xa0 build/obj/datalogging.o
                0x0800bf90                vappendPrintf
 .text.appendPrintf
                0x0800c030       0x20 build/obj/datalogging.o
                0x0800c030                appendPrintf
 .text.appendMsgPrefix
                0x0800c050       0x20 build/obj/datalogging.o
                0x0800c050                appendMsgPrefix
 .text.appendFloat
                0x0800c070       0xd0 build/obj/datalogging.o
                0x0800c070                appendFloat
 .text.scheduleMsg
                0x0800c140       0x40 build/obj/datalogging.o
                0x0800c140                scheduleMsg
 .text.scheduleIntValue
                0x0800c180       0x50 build/obj/datalogging.o
                0x0800c180                scheduleIntValue
 .text.printMsg
                0x0800c1d0       0x40 build/obj/datalogging.o
                0x0800c1d0                printMsg
 .text.debugFloat
                0x0800c210       0x30 build/obj/datalogging.o
                0x0800c210                debugFloat
 .text.debugInt
                0x0800c240       0x30 build/obj/datalogging.o
                0x0800c240                debugInt
 .text.printPending
                0x0800c270       0x40 build/obj/datalogging.o
                0x0800c270                printPending
 .text.initIntermediateLoggingBuffer
                0x0800c2b0       0x30 build/obj/datalogging.o
                0x0800c2b0                initIntermediateLoggingBuffer
 .text.ltoa_internal
                0x0800c2e0       0x90 build/obj/rfiutil.o
 .text.itoa10   0x0800c370       0x40 build/obj/rfiutil.o
                0x0800c370                itoa10
 .text.isIsrContext
                0x0800c3b0       0x20 build/obj/rfiutil.o
                0x0800c3b0                isIsrContext
 .text.chVTSetAny
                0x0800c3d0       0x70 build/obj/rfiutil.o
                0x0800c3d0                chVTSetAny
 .text.printHistogram
                0x0800c440       0xc0 build/obj/rfiutil.o
                0x0800c440                printHistogram
 .text.halInit  0x0800c500       0x50 build/obj/hal.o
                0x0800c500                halInit
 .text.halIsCounterWithin
                0x0800c550       0x40 build/obj/hal.o
                0x0800c550                halIsCounterWithin
 .text.halPolledDelay
                0x0800c590       0x20 build/obj/hal.o
                0x0800c590                halPolledDelay
 .text.adcInit  0x0800c5b0       0x10 build/obj/adc.o
                0x0800c5b0                adcInit
 .text.adcObjectInit
                0x0800c5c0       0x20 build/obj/adc.o
                0x0800c5c0                adcObjectInit
 .text.adcStart
                0x0800c5e0       0x60 build/obj/adc.o
                0x0800c5e0                adcStart
 .text.adcStartConversionI
                0x0800c640       0x70 build/obj/adc.o
                0x0800c640                adcStartConversionI
 .text.canInit  0x0800c6b0       0x10 build/obj/can.o
                0x0800c6b0                canInit
 .text.canObjectInit
                0x0800c6c0       0x50 build/obj/can.o
                0x0800c6c0                canObjectInit
 .text.i2cInit  0x0800c710       0x10 build/obj/i2c.o
                0x0800c710                i2cInit
 .text.i2cObjectInit
                0x0800c720       0x20 build/obj/i2c.o
                0x0800c720                i2cObjectInit
 .text.i2cMasterTransmitTimeout
                0x0800c740       0xa0 build/obj/i2c.o
                0x0800c740                i2cMasterTransmitTimeout
 .text.i2cAcquireBus
                0x0800c7e0       0x30 build/obj/i2c.o
                0x0800c7e0                i2cAcquireBus
 .text.i2cReleaseBus
                0x0800c810       0x30 build/obj/i2c.o
                0x0800c810                i2cReleaseBus
 .text.icuInit  0x0800c840       0x10 build/obj/icu.o
                0x0800c840                icuInit
 .text.icuObjectInit
                0x0800c850       0x10 build/obj/icu.o
                0x0800c850                icuObjectInit
 .text.icuStart
                0x0800c860       0x70 build/obj/icu.o
                0x0800c860                icuStart
 .text.icuStop  0x0800c8d0       0x60 build/obj/icu.o
                0x0800c8d0                icuStop
 .text.icuEnable
                0x0800c930       0x60 build/obj/icu.o
                0x0800c930                icuEnable
 .text.icuDisable
                0x0800c990       0x60 build/obj/icu.o
                0x0800c990                icuDisable
 .text.mmcGetInfo
                0x0800c9f0       0x40 build/obj/mmc_spi.o
                0x0800c9f0                mmcGetInfo
 .text.recvr1   0x0800ca30       0xd0 build/obj/mmc_spi.o
 .text.wait     0x0800cb00      0x1a0 build/obj/mmc_spi.o
 .text.send_hdr
                0x0800cca0       0x80 build/obj/mmc_spi.o
 .text.send_command_R1
                0x0800cd20       0x30 build/obj/mmc_spi.o
 .text.send_command_R3
                0x0800cd50       0x40 build/obj/mmc_spi.o
 .text.sync     0x0800cd90       0x40 build/obj/mmc_spi.o
 .text.mmcSync  0x0800cdd0       0x50 build/obj/mmc_spi.o
                0x0800cdd0                mmcSync
 .text.read_CxD
                0x0800ce20      0x130 build/obj/mmc_spi.o
 .text.mmcDisconnect
                0x0800cf50       0x90 build/obj/mmc_spi.o
                0x0800cf50                mmcDisconnect
 .text.mmcConnect
                0x0800cfe0      0x2d0 build/obj/mmc_spi.o
                0x0800cfe0                mmcConnect
 .text.mmcInit  0x0800d2b0       0x10 build/obj/mmc_spi.o
                0x0800d2b0                mmcInit
 .text.mmcObjectInit
                0x0800d2c0       0x20 build/obj/mmc_spi.o
                0x0800d2c0                mmcObjectInit
 .text.mmcStart
                0x0800d2e0       0x50 build/obj/mmc_spi.o
                0x0800d2e0                mmcStart
 .text.mmcStop  0x0800d330       0x50 build/obj/mmc_spi.o
                0x0800d330                mmcStop
 .text.mmcStartSequentialRead
                0x0800d380       0x90 build/obj/mmc_spi.o
                0x0800d380                mmcStartSequentialRead
 .text.mmcSequentialRead
                0x0800d410       0xb0 build/obj/mmc_spi.o
                0x0800d410                mmcSequentialRead
 .text.mmcStopSequentialRead
                0x0800d4c0       0x60 build/obj/mmc_spi.o
                0x0800d4c0                mmcStopSequentialRead
 .text.mmc_read
                0x0800d520       0x90 build/obj/mmc_spi.o
 .text.mmcStartSequentialWrite
                0x0800d5b0       0x90 build/obj/mmc_spi.o
                0x0800d5b0                mmcStartSequentialWrite
 .text.mmcSequentialWrite
                0x0800d640       0xb0 build/obj/mmc_spi.o
                0x0800d640                mmcSequentialWrite
 .text.mmcStopSequentialWrite
                0x0800d6f0       0x60 build/obj/mmc_spi.o
                0x0800d6f0                mmcStopSequentialWrite
 .text.mmc_write
                0x0800d750       0x90 build/obj/mmc_spi.o
 .text.mmcsd_get_slice
                0x0800d7e0       0x80 build/obj/mmcsd.o
 .text.mmcsdGetCapacity
                0x0800d860       0x80 build/obj/mmcsd.o
                0x0800d860                mmcsdGetCapacity
 .text.pwmInit  0x0800d8e0       0x10 build/obj/pwm.o
                0x0800d8e0                pwmInit
 .text.pwmObjectInit
                0x0800d8f0       0x10 build/obj/pwm.o
                0x0800d8f0                pwmObjectInit
 .text.pwmStart
                0x0800d900       0x70 build/obj/pwm.o
                0x0800d900                pwmStart
 .text.rtcInit  0x0800d970       0x10 build/obj/rtc.o
                0x0800d970                rtcInit
 .text.rtcSetTime
                0x0800d980       0x50 build/obj/rtc.o
                0x0800d980                rtcSetTime
 .text.rtcGetTime
                0x0800d9d0       0x50 build/obj/rtc.o
                0x0800d9d0                rtcGetTime
 .text.rtcGetTimeFat
                0x0800da20       0x30 build/obj/rtc.o
                0x0800da20                rtcGetTimeFat
 .text.readt    0x0800da50       0x10 build/obj/serial.o
 .text.read     0x0800da60       0x10 build/obj/serial.o
 .text.writet   0x0800da70       0x10 build/obj/serial.o
 .text.write    0x0800da80       0x10 build/obj/serial.o
 .text.gett     0x0800da90       0x10 build/obj/serial.o
 .text.get      0x0800daa0       0x10 build/obj/serial.o
 .text.putt     0x0800dab0       0x10 build/obj/serial.o
 .text.put      0x0800dac0       0x10 build/obj/serial.o
 .text.sdInit   0x0800dad0       0x10 build/obj/serial.o
                0x0800dad0                sdInit
 .text.sdObjectInit
                0x0800dae0       0x50 build/obj/serial.o
                0x0800dae0                sdObjectInit
 .text.sdStart  0x0800db30       0x60 build/obj/serial.o
                0x0800db30                sdStart
 .text.sdIncomingDataI
                0x0800db90       0x50 build/obj/serial.o
                0x0800db90                sdIncomingDataI
 .text.onotify  0x0800dbe0       0x70 build/obj/serial_usb.o
 .text.inotify  0x0800dc50       0x80 build/obj/serial_usb.o
 .text.readt    0x0800dcd0       0x10 build/obj/serial_usb.o
 .text.read     0x0800dce0       0x10 build/obj/serial_usb.o
 .text.writet   0x0800dcf0       0x10 build/obj/serial_usb.o
 .text.write    0x0800dd00       0x10 build/obj/serial_usb.o
 .text.gett     0x0800dd10       0x10 build/obj/serial_usb.o
 .text.get      0x0800dd20       0x10 build/obj/serial_usb.o
 .text.putt     0x0800dd30       0x10 build/obj/serial_usb.o
 .text.put      0x0800dd40       0x10 build/obj/serial_usb.o
 .text.sduInit  0x0800dd50       0x10 build/obj/serial_usb.o
                0x0800dd50                sduInit
 .text.sduObjectInit
                0x0800dd60       0x60 build/obj/serial_usb.o
                0x0800dd60                sduObjectInit
 .text.sduStart
                0x0800ddc0       0x80 build/obj/serial_usb.o
                0x0800ddc0                sduStart
 .text.sduConfigureHookI
                0x0800de40       0x50 build/obj/serial_usb.o
                0x0800de40                sduConfigureHookI
 .text.sduRequestsHook
                0x0800de90       0x80 build/obj/serial_usb.o
                0x0800de90                sduRequestsHook
 .text.sduDataTransmitted
                0x0800df10       0xc0 build/obj/serial_usb.o
                0x0800df10                sduDataTransmitted
 .text.sduDataReceived
                0x0800dfd0       0x90 build/obj/serial_usb.o
                0x0800dfd0                sduDataReceived
 .text.sduInterruptTransmitted
                0x0800e060       0x10 build/obj/serial_usb.o
                0x0800e060                sduInterruptTransmitted
 .text.spiInit  0x0800e070       0x10 build/obj/spi.o
                0x0800e070                spiInit
 .text.spiObjectInit
                0x0800e080       0x20 build/obj/spi.o
                0x0800e080                spiObjectInit
 .text.spiStart
                0x0800e0a0       0x70 build/obj/spi.o
                0x0800e0a0                spiStart
 .text.spiStop  0x0800e110       0x70 build/obj/spi.o
                0x0800e110                spiStop
 .text.spiSelect
                0x0800e180       0x50 build/obj/spi.o
                0x0800e180                spiSelect
 .text.spiUnselect
                0x0800e1d0       0x50 build/obj/spi.o
                0x0800e1d0                spiUnselect
 .text.spiIgnore
                0x0800e220       0xa0 build/obj/spi.o
                0x0800e220                spiIgnore
 .text.spiSend  0x0800e2c0       0xa0 build/obj/spi.o
                0x0800e2c0                spiSend
 .text.spiReceive
                0x0800e360       0xa0 build/obj/spi.o
                0x0800e360                spiReceive
 .text.usbInit  0x0800e400       0x10 build/obj/usb.o
                0x0800e400                usbInit
 .text.usbObjectInit
                0x0800e410       0x20 build/obj/usb.o
                0x0800e410                usbObjectInit
 .text.usbStart
                0x0800e430       0x70 build/obj/usb.o
                0x0800e430                usbStart
 .text.usbInitEndpointI
                0x0800e4a0       0x80 build/obj/usb.o
                0x0800e4a0                usbInitEndpointI
 .text.usbPrepareReceive
                0x0800e520       0x20 build/obj/usb.o
                0x0800e520                usbPrepareReceive
 .text.usbPrepareTransmit
                0x0800e540       0x20 build/obj/usb.o
                0x0800e540                usbPrepareTransmit
 .text.usbPrepareQueuedReceive
                0x0800e560       0x20 build/obj/usb.o
                0x0800e560                usbPrepareQueuedReceive
 .text.usbPrepareQueuedTransmit
                0x0800e580       0x20 build/obj/usb.o
                0x0800e580                usbPrepareQueuedTransmit
 .text.usbStartReceiveI
                0x0800e5a0       0x60 build/obj/usb.o
                0x0800e5a0                usbStartReceiveI
 .text.usbStartTransmitI
                0x0800e600       0x60 build/obj/usb.o
                0x0800e600                usbStartTransmitI
 .text._usb_reset
                0x0800e660       0x30 build/obj/usb.o
                0x0800e660                _usb_reset
 .text._usb_ep0setup
                0x0800e690      0x3f0 build/obj/usb.o
                0x0800e690                _usb_ep0setup
 .text._usb_ep0in
                0x0800ea80       0xf0 build/obj/usb.o
                0x0800ea80                _usb_ep0in
 .text._usb_ep0out
                0x0800eb70       0x90 build/obj/usb.o
                0x0800eb70                _usb_ep0out
 .text.acAddData
                0x0800ec00      0x120 build/obj/analog_chart.o
                0x0800ec00                acAddData
 .text.initAnalogChart
                0x0800ed20       0x40 build/obj/analog_chart.o
                0x0800ed20                initAnalogChart
 .text.onWaveShaftSignal
                0x0800ed60       0x30 build/obj/wave_analyzer.o
 .text.initWave
                0x0800ed90       0xa0 build/obj/wave_analyzer.o
 .text.setWaveModeSilent
                0x0800ee30       0x20 build/obj/wave_analyzer.o
 .text.waIcuPeriodCallback
                0x0800ee50       0x70 build/obj/wave_analyzer.o
 .text.waAnaWidthCallback
                0x0800eec0       0x50 build/obj/wave_analyzer.o
 .text.waThread
                0x0800ef10       0x40 build/obj/wave_analyzer.o
 .text.initWaveAnalyzer
                0x0800ef50       0xc0 build/obj/wave_analyzer.o
                0x0800ef50                initWaveAnalyzer
 .text.sendI2Cbyte
                0x0800f010       0x50 build/obj/hardware.o
 .text.initSpiModules
                0x0800f060       0x50 build/obj/hardware.o
                0x0800f060                initSpiModules
 .text.initHardware
                0x0800f0b0       0x70 build/obj/hardware.o
                0x0800f0b0                initHardware
 .text.getAvgAdcValue
                0x0800f120       0x70 build/obj/adc_inputs.o
 .text.adc_callback_slow
                0x0800f190      0x100 build/obj/adc_inputs.o
 .text.pwmpcb_fast
                0x0800f290       0x40 build/obj/adc_inputs.o
 .text.pwmpcb_slow
                0x0800f2d0       0x40 build/obj/adc_inputs.o
 .text.adc_callback_fast
                0x0800f310       0x30 build/obj/adc_inputs.o
 .text.printStatus
                0x0800f340       0x30 build/obj/adc_inputs.o
 .text.setAdcDebugReporting
                0x0800f370       0x20 build/obj/adc_inputs.o
 .text.getAdcValueByIndex
                0x0800f390       0x10 build/obj/adc_inputs.o
                0x0800f390                getAdcValueByIndex
 .text.getInternalAdcValue
                0x0800f3a0       0x20 build/obj/adc_inputs.o
                0x0800f3a0                getInternalAdcValue
 .text.printAdcValue
                0x0800f3c0       0x60 build/obj/adc_inputs.o
 .text.getAdcChannelPort
                0x0800f420       0x90 build/obj/adc_inputs.o
                0x0800f420                getAdcChannelPort
 .text.getAdcChannelPin
                0x0800f4b0       0x80 build/obj/adc_inputs.o
                0x0800f4b0                getAdcChannelPin
 .text.initSlowChannel
                0x0800f530       0x90 build/obj/adc_inputs.o
                0x0800f530                initSlowChannel
 .text.getAdcHardwareIndexByInternalIndex
                0x0800f5c0       0x10 build/obj/adc_inputs.o
                0x0800f5c0                getAdcHardwareIndexByInternalIndex
 .text.printFullAdcReport
                0x0800f5d0      0x520 build/obj/adc_inputs.o
 .text.initAdcInputs
                0x0800faf0      0x130 build/obj/adc_inputs.o
                0x0800faf0                initAdcInputs
 .text.pokeAdcInputs
                0x0800fc20       0x20 build/obj/adc_inputs.o
                0x0800fc20                pokeAdcInputs
 .text.shaft_icu_period_callback
                0x0800fc40       0x30 build/obj/trigger_input.o
 .text.shaft_icu_width_callback
                0x0800fc70       0x30 build/obj/trigger_input.o
 .text.initShaftPositionInputCapture
                0x0800fca0       0xb0 build/obj/trigger_input.o
                0x0800fca0                initShaftPositionInputCapture
 .text.getPortIndex
                0x0800fd50       0xa0 build/obj/pin_repository.o
 .text.reportPins
                0x0800fdf0       0x60 build/obj/pin_repository.o
 .text.chprintf
                0x0800fe50       0x20 build/obj/pin_repository.o
 .text.portname
                0x0800fe70       0xb0 build/obj/pin_repository.o
                0x0800fe70                portname
 .text.hwPortname
                0x0800ff20       0x60 build/obj/pin_repository.o
                0x0800ff20                hwPortname
 .text.initPinRepository
                0x0800ff80       0x80 build/obj/pin_repository.o
                0x0800ff80                initPinRepository
 .text.mySetPadMode
                0x08010000       0xf0 build/obj/pin_repository.o
                0x08010000                mySetPadMode
 .text.setOutputPinValue
                0x080100f0       0x70 build/obj/io_pins.o
                0x080100f0                setOutputPinValue
 .text.errBlinkingThread
                0x08010160       0x60 build/obj/io_pins.o
 .text.comBlinkingThread
                0x080101c0       0x90 build/obj/io_pins.o
 .text.turnOutputPinOff
                0x08010250       0x10 build/obj/io_pins.o
                0x08010250                turnOutputPinOff
 .text.turnOutputPinOn
                0x08010260       0x10 build/obj/io_pins.o
                0x08010260                turnOutputPinOn
 .text.getOutputPinValue
                0x08010270       0x20 build/obj/io_pins.o
                0x08010270                getOutputPinValue
 .text.setDefaultPinState
                0x08010290       0x40 build/obj/io_pins.o
                0x08010290                setDefaultPinState
 .text.outputPinRegisterExt
                0x080102d0       0x80 build/obj/io_pins.o
 .text.getHwPort
                0x08010350       0x20 build/obj/io_pins.o
                0x08010350                getHwPort
 .text.getHwPin
                0x08010370       0x10 build/obj/io_pins.o
                0x08010370                getHwPin
 .text.outputPinRegisterExt2
                0x08010380       0x40 build/obj/io_pins.o
                0x08010380                outputPinRegisterExt2
 .text.outputPinRegister
                0x080103c0       0x20 build/obj/io_pins.o
                0x080103c0                outputPinRegister
 .text.initPrimaryPins
                0x080103e0       0x20 build/obj/io_pins.o
                0x080103e0                initPrimaryPins
 .text.initOutputPins
                0x08010400      0x230 build/obj/io_pins.o
                0x08010400                initOutputPins
 .text.lcdSleep
                0x08010630       0x90 build/obj/lcd_HD44780.o
 .text.lcd_HD44780_write
                0x080106c0      0x1f0 build/obj/lcd_HD44780.o
 .text.lcdInfo  0x080108b0      0x110 build/obj/lcd_HD44780.o
 .text.lcd_HD44780_write_command
                0x080109c0       0x50 build/obj/lcd_HD44780.o
                0x080109c0                lcd_HD44780_write_command
 .text.lcd_HD44780_write_data
                0x08010a10       0x60 build/obj/lcd_HD44780.o
                0x08010a10                lcd_HD44780_write_data
 .text.lcd_HD44780_set_position
                0x08010a70       0x60 build/obj/lcd_HD44780.o
                0x08010a70                lcd_HD44780_set_position
 .text.lcd_HD44780_print_char
                0x08010ad0       0x30 build/obj/lcd_HD44780.o
                0x08010ad0                lcd_HD44780_print_char
 .text.lcd_HD44780_print_string
                0x08010b00       0x20 build/obj/lcd_HD44780.o
                0x08010b00                lcd_HD44780_print_string
 .text.lcd_HD44780_init
                0x08010b20      0x2e0 build/obj/lcd_HD44780.o
                0x08010b20                lcd_HD44780_init
 .text.lcdShowFatalMessage
                0x08010e00       0x30 build/obj/lcd_HD44780.o
                0x08010e00                lcdShowFatalMessage
 .text.get_descriptor
                0x08010e30       0x40 build/obj/usbcfg.o
 .text.usb_event
                0x08010e70       0x60 build/obj/usbcfg.o
 .text.usb_serial_start
                0x08010ed0       0x90 build/obj/usbconsole.o
                0x08010ed0                usb_serial_start
 .text.is_usb_serial_ready
                0x08010f60       0x20 build/obj/usbconsole.o
                0x08010f60                is_usb_serial_ready
 .text.is_serial_ready
                0x08010f80       0x10 build/obj/usbconsole.o
                0x08010f80                is_serial_ready
 .text.flashUnlock
                0x08010f90       0x40 build/obj/flash.o
 .text.flashWriteData
                0x08010fd0       0x40 build/obj/flash.o
 .text.flashSectorSize
                0x08011010       0x30 build/obj/flash.o
                0x08011010                flashSectorSize
 .text.flashSectorBegin
                0x08011040       0x70 build/obj/flash.o
                0x08011040                flashSectorBegin
 .text.flashSectorEnd
                0x080110b0       0x10 build/obj/flash.o
                0x080110b0                flashSectorEnd
 .text.flashSectorAt
                0x080110c0       0x20 build/obj/flash.o
                0x080110c0                flashSectorAt
 .text.flashIsErased
                0x080110e0       0xb0 build/obj/flash.o
                0x080110e0                flashIsErased
 .text.flashSectorErase
                0x08011190      0x110 build/obj/flash.o
                0x08011190                flashSectorErase
 .text.flashErase
                0x080112a0       0x40 build/obj/flash.o
                0x080112a0                flashErase
 .text.flashRead
                0x080112e0       0x20 build/obj/flash.o
                0x080112e0                flashRead
 .text.flashWrite
                0x08011300      0x140 build/obj/flash.o
                0x08011300                flashWrite
 .text.date_help
                0x08011440       0x50 build/obj/rtc_helper.o
 .text.date_get
                0x08011490       0xa0 build/obj/rtc_helper.o
 .text.date_set
                0x08011530       0x50 build/obj/rtc_helper.o
 .text.date_set_tm
                0x08011580       0x20 build/obj/rtc_helper.o
                0x08011580                date_set_tm
 .text.date_get_tm
                0x080115a0       0x20 build/obj/rtc_helper.o
                0x080115a0                date_get_tm
 .text.dateToString
                0x080115c0      0x150 build/obj/rtc_helper.o
                0x080115c0                dateToString
 .text.initRtc  0x08011710       0x70 build/obj/rtc_helper.o
                0x08011710                initRtc
 .text.printError
                0x08011780       0x20 build/obj/mmc_card.o
 .text.ff_cmd_dir
                0x080117a0      0x120 build/obj/mmc_card.o
 .text.MMCumount
                0x080118c0       0x80 build/obj/mmc_card.o
 .text.MMCmount
                0x08011940      0x100 build/obj/mmc_card.o
 .text.sdStatistics
                0x08011a40       0x50 build/obj/mmc_card.o
 .text.MMCmonThread
                0x08011a90       0x50 build/obj/mmc_card.o
 .text.appendToLog
                0x08011ae0       0x90 build/obj/mmc_card.o
                0x08011ae0                appendToLog
 .text.initMmcCard
                0x08011b70       0xc0 build/obj/mmc_card.o
                0x08011b70                initMmcCard
 .text.GpsThreadEntryPoint
                0x08011c30       0xc0 build/obj/neo6m.o
 .text.getCurrentSpeed
                0x08011cf0       0x10 build/obj/neo6m.o
                0x08011cf0                getCurrentSpeed
 .text.printGpsInfo
                0x08011d00      0x100 build/obj/neo6m.o
 .text.initGps  0x08011e00       0xa0 build/obj/neo6m.o
                0x08011e00                initGps
 .text.initOutputPinExt
                0x08011ea0       0x20 build/obj/gpio_helper.o
                0x08011ea0                initOutputPinExt
 .text.getLogicPinValue
                0x08011ec0       0x10 build/obj/gpio_helper.o
                0x08011ec0                getLogicPinValue
 .text.setPinValue
                0x08011ed0       0x40 build/obj/gpio_helper.o
                0x08011ed0                setPinValue
 .text.initBoardTest
                0x08011f10       0x10 build/obj/board_test.o
                0x08011f10                initBoardTest
 .text.findWaveReaderHw
                0x08011f20       0x90 build/obj/wave_analyzer_hw.o
 .text.icuPeriordCallBack
                0x08011fb0       0x10 build/obj/wave_analyzer_hw.o
 .text.icuWidthCallback
                0x08011fc0       0x10 build/obj/wave_analyzer_hw.o
 .text.initWaveAnalyzerDriver
                0x08011fd0       0xb0 build/obj/wave_analyzer_hw.o
                0x08011fd0                initWaveAnalyzerDriver
 .text.setWaveReaderMode
                0x08012080       0x60 build/obj/wave_analyzer_hw.o
                0x08012080                setWaveReaderMode
 .text.applyPinState
                0x080120e0       0x60 build/obj/pwm_generator.o
                0x080120e0                applyPinState
 .text.initPwmGenerator
                0x08012140       0x20 build/obj/pwm_generator.o
                0x08012140                initPwmGenerator
 .text.sparkbench
                0x08012160       0x70 build/obj/injector_central.o
 .text.fuelbench
                0x080121d0       0x70 build/obj/injector_central.o
 .text.isInjectionEnabled
                0x08012240       0x10 build/obj/injector_central.o
                0x08012240                isInjectionEnabled
 .text.assertCylinderId
                0x08012250       0x30 build/obj/injector_central.o
                0x08012250                assertCylinderId
 .text.isInjectorEnabled
                0x08012280       0x30 build/obj/injector_central.o
                0x08012280                isInjectorEnabled
 .text.printStatus
                0x080122b0       0x90 build/obj/injector_central.o
 .text.setInjectorEnabled
                0x08012340       0x50 build/obj/injector_central.o
 .text.runBench
                0x08012390      0x1b0 build/obj/injector_central.o
                0x08012390                runBench
 .text.benchThread
                0x08012540       0x80 build/obj/injector_central.o
 .text.initInjectorCentral
                0x080125c0      0x170 build/obj/injector_central.o
                0x080125c0                initInjectorCentral
 .text.initIgnitionCentral
                0x08012730       0x80 build/obj/ignition_central.o
                0x08012730                initIgnitionCentral
 .text.doResetConfiguration
                0x080127b0       0x30 build/obj/flash_main.o
 .text.flashStateCrc
                0x080127e0       0x10 build/obj/flash_main.o
                0x080127e0                flashStateCrc
 .text.readFromFlash
                0x080127f0      0x100 build/obj/flash_main.o
 .text.writeToFlash
                0x080128f0       0xb0 build/obj/flash_main.o
                0x080128f0                writeToFlash
 .text.initFlash
                0x080129a0       0x70 build/obj/flash_main.o
                0x080129a0                initFlash
 .text.blink_digits
                0x08012a10       0xd0 build/obj/malfunction_indicator.o
 .text.mfiThread
                0x08012ae0       0xf0 build/obj/malfunction_indicator.o
 .text.initMalfunctionIndicator
                0x08012bd0       0x40 build/obj/malfunction_indicator.o
                0x08012bd0                initMalfunctionIndicator
 .text.warning  0x08012c10       0x90 build/obj/error_handling.o
                0x08012c10                warning
 .text.initErrorHandling
                0x08012ca0       0x20 build/obj/error_handling.o
                0x08012ca0                initErrorHandling
 .text.showMapStats
                0x08012cc0       0x30 build/obj/map_averaging.o
 .text.shaftPositionCallback
                0x08012cf0       0xd0 build/obj/map_averaging.o
 .text.endAveraging
                0x08012dc0       0x50 build/obj/map_averaging.o
 .text.startAveraging
                0x08012e10       0x40 build/obj/map_averaging.o
 .text.getAtmosphericPressure
                0x08012e50       0x10 build/obj/map_averaging.o
                0x08012e50                getAtmosphericPressure
 .text.mapAveragingCallback
                0x08012e60       0xe0 build/obj/map_averaging.o
                0x08012e60                mapAveragingCallback
 .text.getMap   0x08012f40       0x20 build/obj/map_averaging.o
                0x08012f40                getMap
 .text.initMapAveraging
                0x08012f60       0x40 build/obj/map_averaging.o
                0x08012f60                initMapAveraging
 .text.prepareFuelMap
                0x08012fa0       0x90 build/obj/fuel_math.o
                0x08012fa0                prepareFuelMap
 .text.getCltCorrection
                0x08013030       0x30 build/obj/fuel_math.o
                0x08013030                getCltCorrection
 .text.getIatCorrection
                0x08013060       0x30 build/obj/fuel_math.o
                0x08013060                getIatCorrection
 .text.getInjectorLag
                0x08013090       0x60 build/obj/fuel_math.o
                0x08013090                getInjectorLag
 .text.getBaseFuel
                0x080130f0       0x70 build/obj/fuel_math.o
                0x080130f0                getBaseFuel
 .text.getRunningFuel
                0x08013160       0x60 build/obj/fuel_math.o
                0x08013160                getRunningFuel
 .text.getStartingFuel
                0x080131c0       0x70 build/obj/fuel_math.o
                0x080131c0                getStartingFuel
 .text.getCrankingFuel
                0x08013230       0x10 build/obj/fuel_math.o
                0x08013230                getCrankingFuel
 .text.getFuelMs
                0x08013240       0x30 build/obj/fuel_math.o
                0x08013240                getFuelMs
 .text.getElectricalValue
                0x08013270       0x50 build/obj/fuel_math.o
                0x08013270                getElectricalValue
 .text.getBaseAdvance
                0x080132c0       0x60 build/obj/advance_map.o
                0x080132c0                getBaseAdvance
 .text.getAdvance
                0x08013320       0x60 build/obj/advance_map.o
                0x08013320                getAdvance
 .text.prepareTimingMap
                0x08013380       0x90 build/obj/advance_map.o
                0x08013380                prepareTimingMap
 .text.getGlobalConfigurationVersion
                0x08013410       0x10 build/obj/engine_configuration.o
                0x08013410                getGlobalConfigurationVersion
 .text.incrementGlobalConfigurationVersion
                0x08013420       0x20 build/obj/engine_configuration.o
                0x08013420                incrementGlobalConfigurationVersion
 .text.setConstantDwell
                0x08013440       0x80 build/obj/engine_configuration.o
                0x08013440                setConstantDwell
 .text.initBpsxD1Sensor
                0x080134c0       0x30 build/obj/engine_configuration.o
                0x080134c0                initBpsxD1Sensor
 .text.setWholeFuelMap
                0x080134f0      0x610 build/obj/engine_configuration.o
                0x080134f0                setWholeFuelMap
 .text.setDefaultConfiguration
                0x08013b00      0x530 build/obj/engine_configuration.o
                0x08013b00                setDefaultConfiguration
 .text.setDefaultNonPersistentConfiguration
                0x08014030       0x10 build/obj/engine_configuration.o
                0x08014030                setDefaultNonPersistentConfiguration
 .text.applyNonPersistentConfiguration
                0x08014040       0x70 build/obj/engine_configuration.o
                0x08014040                applyNonPersistentConfiguration
 .text.resetConfigurationExt
                0x080140b0       0xd0 build/obj/engine_configuration.o
                0x080140b0                resetConfigurationExt
 .text.turnLow  0x08014180       0x30 build/obj/signal_executor.o
 .text.turnHigh
                0x080141b0       0x30 build/obj/signal_executor.o
 .text.initSignalExecutor
                0x080141e0       0x20 build/obj/signal_executor.o
                0x080141e0                initSignalExecutor
 .text.initOutputSignalBase
                0x08014200       0x20 build/obj/signal_executor.o
                0x08014200                initOutputSignalBase
 .text.scheduleOutputBase
                0x08014220       0x30 build/obj/signal_executor.o
                0x08014220                scheduleOutputBase
 .text.scheduleOutput
                0x08014250       0xb0 build/obj/signal_executor.o
                0x08014250                scheduleOutput
 .text.getPinName
                0x08014300       0x90 build/obj/signal_executor.o
                0x08014300                getPinName
 .text.interpolate
                0x08014390       0x80 build/obj/interpolation.o
                0x08014390                interpolate
 .text.findIndex
                0x08014410       0xa0 build/obj/interpolation.o
                0x08014410                findIndex
 .text.interpolate2d
                0x080144b0       0x60 build/obj/interpolation.o
                0x080144b0                interpolate2d
 .text.interpolate3d
                0x08014510      0x190 build/obj/interpolation.o
                0x08014510                interpolate3d
 .text.find_position
                0x080146a0       0x80 build/obj/malfunction_central.o
 .text.initMalfunctionCentral
                0x08014720       0x10 build/obj/malfunction_central.o
                0x08014720                initMalfunctionCentral
 .text.addError
                0x08014730       0x40 build/obj/malfunction_central.o
                0x08014730                addError
 .text.removeError
                0x08014770       0x90 build/obj/malfunction_central.o
                0x08014770                removeError
 .text.setError
                0x08014800       0x20 build/obj/malfunction_central.o
                0x08014800                setError
 .text.getErrorCodes
                0x08014820       0x70 build/obj/malfunction_central.o
                0x08014820                getErrorCodes
 .text.hasErrorCodes
                0x08014890       0x20 build/obj/malfunction_central.o
                0x08014890                hasErrorCodes
 .text.resetEventList
                0x080148b0       0x10 build/obj/event_registry.o
                0x080148b0                resetEventList
 .text.registerActuatorEvent
                0x080148c0       0x40 build/obj/event_registry.o
                0x080148c0                registerActuatorEvent
 .text.findEvents
                0x08014900       0x60 build/obj/event_registry.o
                0x08014900                findEvents
 .text.maxF     0x08014960       0x20 build/obj/idle_controller.o
                0x08014960                maxF
 .text.printStatus
                0x08014980       0x40 build/obj/wave_chart.o
 .text.setChartActive
                0x080149c0       0x20 build/obj/wave_chart.o
 .text.setChartSize
                0x080149e0       0x20 build/obj/wave_chart.o
                0x080149e0                setChartSize
 .text.resetWaveChart
                0x08014a00       0x30 build/obj/wave_chart.o
                0x08014a00                resetWaveChart
 .text.isWaveChartFull
                0x08014a30       0x20 build/obj/wave_chart.o
                0x08014a30                isWaveChartFull
 .text.publishChart
                0x08014a50       0x30 build/obj/wave_chart.o
                0x08014a50                publishChart
 .text.publishChartIfFull
                0x08014a80       0x20 build/obj/wave_chart.o
                0x08014a80                publishChartIfFull
 .text.addWaveChartEvent3
                0x08014aa0       0x90 build/obj/wave_chart.o
                0x08014aa0                addWaveChartEvent3
 .text.initWaveChart
                0x08014b30       0x90 build/obj/wave_chart.o
                0x08014b30                initWaveChart
 .text.hex2int  0x08014bc0       0xc0 build/obj/nmea.o
                0x08014bc0                hex2int
 .text.str2int  0x08014c80       0x80 build/obj/nmea.o
                0x08014c80                str2int
 .text.gps_deg_dec
                0x08014d00      0x130 build/obj/nmea.o
                0x08014d00                gps_deg_dec
 .text.gps_convert_deg_to_dec
                0x08014e30       0x40 build/obj/nmea.o
                0x08014e30                gps_convert_deg_to_dec
 .text.str_till_comma
                0x08014e70       0xb0 build/obj/nmea.o
                0x08014e70                str_till_comma
 .text.nmea_parse_gpgga
                0x08014f20      0x130 build/obj/nmea.o
                0x08014f20                nmea_parse_gpgga
 .text.nmea_parse_gprmc
                0x08015050      0x1d0 build/obj/nmea.o
                0x08015050                nmea_parse_gprmc
 .text.nmea_valid_checksum
                0x08015220       0x50 build/obj/nmea.o
                0x08015220                nmea_valid_checksum
 .text.nmea_get_message_type
                0x08015270       0x40 build/obj/nmea.o
                0x08015270                nmea_get_message_type
 .text.gps_location
                0x080152b0       0x40 build/obj/nmea.o
                0x080152b0                gps_location
 .text.initAlgo
                0x080152f0       0x20 build/obj/algo.o
                0x080152f0                initAlgo
 .text.getTpsRateOfChange
                0x08015310       0x20 build/obj/tps.o
                0x08015310                getTpsRateOfChange
 .text.getTpsValue
                0x08015330       0x90 build/obj/tps.o
                0x08015330                getTpsValue
 .text.getTPSVoltage
                0x080153c0       0x50 build/obj/tps.o
                0x080153c0                getTPSVoltage
 .text.getTPS10bitAdc
                0x08015410       0x20 build/obj/tps.o
                0x08015410                getTPS10bitAdc
 .text.getTPS   0x08015430       0x10 build/obj/tps.o
                0x08015430                getTPS
 .text.convertVoltageTo10bitADC
                0x08015440       0x30 build/obj/tps.o
                0x08015440                convertVoltageTo10bitADC
 .text.initSensors
                0x08015470       0x10 build/obj/allsensors.o
                0x08015470                initSensors
 .text.getMaf   0x08015480       0x50 build/obj/maf.o
                0x08015480                getMaf
 .text.getMAPValueHonda_Denso183
                0x080154d0       0x30 build/obj/map.o
                0x080154d0                getMAPValueHonda_Denso183
 .text.getMAPValueMPX_4250
                0x08015500       0x30 build/obj/map.o
                0x08015500                getMAPValueMPX_4250
 .text.getMapByVoltage
                0x08015530       0x60 build/obj/map.o
                0x08015530                getMapByVoltage
 .text.getAfr   0x08015590       0x70 build/obj/ego.o
                0x08015590                getAfr
 .text.getVRef  0x08015600       0x50 build/obj/voltage.o
                0x08015600                getVRef
 .text.getVBatt
                0x08015650       0x50 build/obj/voltage.o
                0x08015650                getVBatt
 .text.getR2InVoltageDividor
                0x080156a0       0x40 build/obj/thermistors.o
                0x080156a0                getR2InVoltageDividor
 .text.convertResistanceToKelvinTemperature
                0x080156e0       0x60 build/obj/thermistors.o
                0x080156e0                convertResistanceToKelvinTemperature
 .text.convertKelvinToC
                0x08015740       0x20 build/obj/thermistors.o
                0x08015740                convertKelvinToC
 .text.getKelvinTemperature
                0x08015760       0x30 build/obj/thermistors.o
                0x08015760                getKelvinTemperature
 .text.getResistance
                0x08015790       0x80 build/obj/thermistors.o
                0x08015790                getResistance
 .text.getTemperatureC
                0x08015810       0x40 build/obj/thermistors.o
                0x08015810                getTemperatureC
 .text.isValidCoolantTemperature
                0x08015850       0x50 build/obj/thermistors.o
                0x08015850                isValidCoolantTemperature
 .text.isValidIntakeAirTemperature
                0x080158a0       0x50 build/obj/thermistors.o
                0x080158a0                isValidIntakeAirTemperature
 .text.getCoolantTemperature
                0x080158f0       0x30 build/obj/thermistors.o
                0x080158f0                getCoolantTemperature
 .text.setThermistorConfiguration
                0x08015920       0x20 build/obj/thermistors.o
                0x08015920                setThermistorConfiguration
 .text.prepareThermistorCurve
                0x08015940      0x110 build/obj/thermistors.o
                0x08015940                prepareThermistorCurve
 .text.initThermistorCurve
                0x08015a50       0x20 build/obj/thermistors.o
 .text.getIntakeAirTemperature
                0x08015a70       0x50 build/obj/thermistors.o
                0x08015a70                getIntakeAirTemperature
 .text.initThermistors
                0x08015ac0       0x50 build/obj/thermistors.o
                0x08015ac0                initThermistors
 .text.Vector6C
                0x08015b10       0x40 build/obj/stm32_dma.o
                0x08015b10                Vector6C
 .text.Vector70
                0x08015b50       0x40 build/obj/stm32_dma.o
                0x08015b50                Vector70
 .text.Vector74
                0x08015b90       0x40 build/obj/stm32_dma.o
                0x08015b90                Vector74
 .text.Vector78
                0x08015bd0       0x40 build/obj/stm32_dma.o
                0x08015bd0                Vector78
 .text.Vector7C
                0x08015c10       0x40 build/obj/stm32_dma.o
                0x08015c10                Vector7C
 .text.Vector80
                0x08015c50       0x40 build/obj/stm32_dma.o
                0x08015c50                Vector80
 .text.Vector84
                0x08015c90       0x40 build/obj/stm32_dma.o
                0x08015c90                Vector84
 .text.VectorFC
                0x08015cd0       0x40 build/obj/stm32_dma.o
                0x08015cd0                VectorFC
 .text.Vector120
                0x08015d10       0x40 build/obj/stm32_dma.o
                0x08015d10                Vector120
 .text.Vector124
                0x08015d50       0x40 build/obj/stm32_dma.o
                0x08015d50                Vector124
 .text.Vector128
                0x08015d90       0x40 build/obj/stm32_dma.o
                0x08015d90                Vector128
 .text.Vector12C
                0x08015dd0       0x40 build/obj/stm32_dma.o
                0x08015dd0                Vector12C
 .text.Vector130
                0x08015e10       0x40 build/obj/stm32_dma.o
                0x08015e10                Vector130
 .text.Vector150
                0x08015e50       0x40 build/obj/stm32_dma.o
                0x08015e50                Vector150
 .text.Vector154
                0x08015e90       0x40 build/obj/stm32_dma.o
                0x08015e90                Vector154
 .text.Vector158
                0x08015ed0       0x40 build/obj/stm32_dma.o
                0x08015ed0                Vector158
 .text.dmaInit  0x08015f10      0x100 build/obj/stm32_dma.o
                0x08015f10                dmaInit
 .text.dmaStreamAllocate
                0x08016010       0xe0 build/obj/stm32_dma.o
                0x08016010                dmaStreamAllocate
 .text.dmaStreamRelease
                0x080160f0       0x90 build/obj/stm32_dma.o
                0x080160f0                dmaStreamRelease
 .text.hal_lld_init
                0x08016180       0xe0 build/obj/hal_lld.o
                0x08016180                hal_lld_init
 .text.stm32_clock_init
                0x08016260      0x130 build/obj/hal_lld.o
                0x08016260                stm32_clock_init
 .text.adc_lld_init
                0x08016390       0x70 build/obj/adc_lld.o
                0x08016390                adc_lld_init
 .text.adc_lld_start
                0x08016400       0xf0 build/obj/adc_lld.o
                0x08016400                adc_lld_start
 .text.adc_lld_start_conversion
                0x080164f0       0x90 build/obj/adc_lld.o
                0x080164f0                adc_lld_start_conversion
 .text.adc_lld_stop_conversion
                0x08016580       0x40 build/obj/adc_lld.o
                0x08016580                adc_lld_stop_conversion
 .text.adc_lld_serve_rx_interrupt
                0x080165c0      0x120 build/obj/adc_lld.o
 .text.Vector88
                0x080166e0      0x160 build/obj/adc_lld.o
                0x080166e0                Vector88
 .text.can_lld_set_filters
                0x08016840      0x190 build/obj/can_lld.o
 .text.can_lld_sce_handler
                0x080169d0       0x90 build/obj/can_lld.o
 .text.can_lld_rx1_handler
                0x08016a60       0x90 build/obj/can_lld.o
 .text.can_lld_rx0_handler
                0x08016af0       0x90 build/obj/can_lld.o
 .text.can_lld_tx_handler
                0x08016b80       0x50 build/obj/can_lld.o
 .text.Vector8C
                0x08016bd0       0x20 build/obj/can_lld.o
                0x08016bd0                Vector8C
 .text.Vector90
                0x08016bf0       0x20 build/obj/can_lld.o
                0x08016bf0                Vector90
 .text.Vector94
                0x08016c10       0x20 build/obj/can_lld.o
                0x08016c10                Vector94
 .text.Vector98
                0x08016c30       0x20 build/obj/can_lld.o
                0x08016c30                Vector98
 .text.Vector13C
                0x08016c50       0x20 build/obj/can_lld.o
                0x08016c50                Vector13C
 .text.Vector140
                0x08016c70       0x20 build/obj/can_lld.o
                0x08016c70                Vector140
 .text.Vector144
                0x08016c90       0x20 build/obj/can_lld.o
                0x08016c90                Vector144
 .text.Vector148
                0x08016cb0       0x20 build/obj/can_lld.o
                0x08016cb0                Vector148
 .text.can_lld_init
                0x08016cd0       0x50 build/obj/can_lld.o
                0x08016cd0                can_lld_init
 .text.initgpio
                0x08016d20       0x20 build/obj/pal_lld.o
 .text._pal_lld_init
                0x08016d40       0xc0 build/obj/pal_lld.o
                0x08016d40                _pal_lld_init
 .text._pal_lld_setgroupmode
                0x08016e00       0xc0 build/obj/pal_lld.o
                0x08016e00                _pal_lld_setgroupmode
 .text.i2c_lld_abort_operation
                0x08016ec0       0x60 build/obj/i2c_lld.o
 .text.i2c_lld_safety_timeout
                0x08016f20       0x40 build/obj/i2c_lld.o
 .text.VectorBC
                0x08016f60      0x1b0 build/obj/i2c_lld.o
                0x08016f60                VectorBC
 .text.VectorC0
                0x08017110      0x1a0 build/obj/i2c_lld.o
                0x08017110                VectorC0
 .text.i2c_lld_init
                0x080172b0       0x30 build/obj/i2c_lld.o
                0x080172b0                i2c_lld_init
 .text.i2c_lld_master_transmit_timeout
                0x080172e0      0x160 build/obj/i2c_lld.o
                0x080172e0                i2c_lld_master_transmit_timeout
 .text.otg_disable_ep
                0x08017440       0xb0 build/obj/usb_lld.o
 .text.otg_ram_reset
                0x080174f0       0x10 build/obj/usb_lld.o
 .text.otg_do_push
                0x08017500       0x60 build/obj/usb_lld.o
 .text.otg_fifo_read_to_buffer
                0x08017560       0x70 build/obj/usb_lld.o
 .text.otg_epout_handler
                0x080175d0       0x70 build/obj/usb_lld.o
 .text.otg_ram_alloc
                0x08017640       0x20 build/obj/usb_lld.o
 .text.otg_txfifo_flush
                0x08017660       0x20 build/obj/usb_lld.o
 .text.usb_lld_wakeup_pump
                0x08017680       0x20 build/obj/usb_lld.o
 .text.usb_lld_pump
                0x080176a0      0x430 build/obj/usb_lld.o
 .text.otg_epin_handler
                0x08017ad0       0xa0 build/obj/usb_lld.o
 .text.Vector14C
                0x08017b70      0x160 build/obj/usb_lld.o
                0x08017b70                Vector14C
 .text.usb_lld_init
                0x08017cd0       0x30 build/obj/usb_lld.o
                0x08017cd0                usb_lld_init
 .text.usb_lld_start
                0x08017d00      0x100 build/obj/usb_lld.o
                0x08017d00                usb_lld_start
 .text.usb_lld_reset
                0x08017e00       0xe0 build/obj/usb_lld.o
                0x08017e00                usb_lld_reset
 .text.usb_lld_set_address
                0x08017ee0       0x20 build/obj/usb_lld.o
                0x08017ee0                usb_lld_set_address
 .text.usb_lld_init_endpoint
                0x08017f00      0x170 build/obj/usb_lld.o
                0x08017f00                usb_lld_init_endpoint
 .text.usb_lld_get_status_out
                0x08018070       0x30 build/obj/usb_lld.o
                0x08018070                usb_lld_get_status_out
 .text.usb_lld_get_status_in
                0x080180a0       0x30 build/obj/usb_lld.o
                0x080180a0                usb_lld_get_status_in
 .text.usb_lld_read_setup
                0x080180d0       0x20 build/obj/usb_lld.o
                0x080180d0                usb_lld_read_setup
 .text.usb_lld_prepare_receive
                0x080180f0       0x30 build/obj/usb_lld.o
                0x080180f0                usb_lld_prepare_receive
 .text.usb_lld_prepare_transmit
                0x08018120       0x40 build/obj/usb_lld.o
                0x08018120                usb_lld_prepare_transmit
 .text.usb_lld_start_out
                0x08018160       0x20 build/obj/usb_lld.o
                0x08018160                usb_lld_start_out
 .text.usb_lld_start_in
                0x08018180       0x30 build/obj/usb_lld.o
                0x08018180                usb_lld_start_in
 .text.usb_lld_stall_out
                0x080181b0       0x20 build/obj/usb_lld.o
                0x080181b0                usb_lld_stall_out
 .text.usb_lld_stall_in
                0x080181d0       0x20 build/obj/usb_lld.o
                0x080181d0                usb_lld_stall_in
 .text.usb_lld_clear_out
                0x080181f0       0x20 build/obj/usb_lld.o
                0x080181f0                usb_lld_clear_out
 .text.usb_lld_clear_in
                0x08018210       0x20 build/obj/usb_lld.o
                0x08018210                usb_lld_clear_in
 .text.rtc_lld_init
                0x08018230       0x70 build/obj/rtc_lld.o
                0x08018230                rtc_lld_init
 .text.rtc_lld_set_time
                0x080182a0       0x50 build/obj/rtc_lld.o
                0x080182a0                rtc_lld_set_time
 .text.rtc_lld_get_time
                0x080182f0       0x50 build/obj/rtc_lld.o
                0x080182f0                rtc_lld_get_time
 .text.rtc_lld_get_time_fat
                0x08018340       0xc0 build/obj/rtc_lld.o
                0x08018340                rtc_lld_get_time_fat
 .text.spi_lld_serve_tx_interrupt
                0x08018400       0x10 build/obj/spi_lld.o
 .text.spi_lld_serve_rx_interrupt
                0x08018410       0xa0 build/obj/spi_lld.o
 .text.spi_lld_init
                0x080184b0       0x50 build/obj/spi_lld.o
                0x080184b0                spi_lld_init
 .text.spi_lld_start
                0x08018500       0xf0 build/obj/spi_lld.o
                0x08018500                spi_lld_start
 .text.spi_lld_stop
                0x080185f0       0x40 build/obj/spi_lld.o
                0x080185f0                spi_lld_stop
 .text.spi_lld_select
                0x08018630       0x20 build/obj/spi_lld.o
                0x08018630                spi_lld_select
 .text.spi_lld_unselect
                0x08018650       0x20 build/obj/spi_lld.o
                0x08018650                spi_lld_unselect
 .text.spi_lld_ignore
                0x08018670       0x60 build/obj/spi_lld.o
                0x08018670                spi_lld_ignore
 .text.spi_lld_send
                0x080186d0       0x60 build/obj/spi_lld.o
                0x080186d0                spi_lld_send
 .text.spi_lld_receive
                0x08018730       0x50 build/obj/spi_lld.o
                0x08018730                spi_lld_receive
 .text.icu_lld_serve_interrupt
                0x08018780       0xa0 build/obj/icu_lld.o
 .text.VectorA4
                0x08018820       0x20 build/obj/icu_lld.o
                0x08018820                VectorA4
 .text.VectorAC
                0x08018840       0x20 build/obj/icu_lld.o
                0x08018840                VectorAC
 .text.VectorB0
                0x08018860       0x20 build/obj/icu_lld.o
                0x08018860                VectorB0
 .text.VectorB4
                0x08018880       0x20 build/obj/icu_lld.o
                0x08018880                VectorB4
 .text.VectorA0
                0x080188a0       0x20 build/obj/icu_lld.o
                0x080188a0                VectorA0
 .text.icu_lld_init
                0x080188c0       0x60 build/obj/icu_lld.o
                0x080188c0                icu_lld_init
 .text.icu_lld_start
                0x08018920      0x230 build/obj/icu_lld.o
                0x08018920                icu_lld_start
 .text.icu_lld_stop
                0x08018b50       0xc0 build/obj/icu_lld.o
                0x08018b50                icu_lld_stop
 .text.icu_lld_enable
                0x08018c10       0x70 build/obj/icu_lld.o
                0x08018c10                icu_lld_enable
 .text.icu_lld_disable
                0x08018c80       0x20 build/obj/icu_lld.o
                0x08018c80                icu_lld_disable
 .text.VectorB8
                0x08018ca0       0xa0 build/obj/pwm_lld.o
                0x08018ca0                VectorB8
 .text.VectorF0
                0x08018d40       0x30 build/obj/pwm_lld.o
                0x08018d40                VectorF0
 .text.VectorF8
                0x08018d70       0x80 build/obj/pwm_lld.o
                0x08018d70                VectorF8
 .text.pwm_lld_init
                0x08018df0       0x40 build/obj/pwm_lld.o
                0x08018df0                pwm_lld_init
 .text.pwm_lld_start
                0x08018e30      0x1d0 build/obj/pwm_lld.o
                0x08018e30                pwm_lld_start
 .text.notify1  0x08019000       0x20 build/obj/serial_lld.o
 .text.notify2  0x08019020       0x20 build/obj/serial_lld.o
 .text.notify3  0x08019040       0x20 build/obj/serial_lld.o
 .text.serve_interrupt
                0x08019060      0x150 build/obj/serial_lld.o
 .text.VectorD4
                0x080191b0       0x20 build/obj/serial_lld.o
                0x080191b0                VectorD4
 .text.VectorD8
                0x080191d0       0x20 build/obj/serial_lld.o
                0x080191d0                VectorD8
 .text.VectorDC
                0x080191f0       0x20 build/obj/serial_lld.o
                0x080191f0                VectorDC
 .text.sd_lld_init
                0x08019210       0x70 build/obj/serial_lld.o
                0x08019210                sd_lld_init
 .text.sd_lld_start
                0x08019280      0x100 build/obj/serial_lld.o
                0x08019280                sd_lld_start
 .text.__early_init
                0x08019380       0x10 build/obj/board.o
                0x08019380                __early_init
 .text.mmc_lld_is_card_inserted
                0x08019390       0x10 build/obj/board.o
                0x08019390                mmc_lld_is_card_inserted
 .text.mmc_lld_is_write_protected
                0x080193a0       0x10 build/obj/board.o
                0x080193a0                mmc_lld_is_write_protected
 .text.boardInit
                0x080193b0       0x10 build/obj/board.o
                0x080193b0                boardInit
 .text.disk_initialize
                0x080193c0       0x30 build/obj/fatfs_diskio.o
                0x080193c0                disk_initialize
 .text.disk_status
                0x080193f0       0x30 build/obj/fatfs_diskio.o
                0x080193f0                disk_status
 .text.disk_read
                0x08019420       0xe0 build/obj/fatfs_diskio.o
                0x08019420                disk_read
 .text.disk_write
                0x08019500       0xf0 build/obj/fatfs_diskio.o
                0x08019500                disk_write
 .text.disk_ioctl
                0x080195f0       0x30 build/obj/fatfs_diskio.o
                0x080195f0                disk_ioctl
 .text.get_fattime
                0x08019620       0x10 build/obj/fatfs_diskio.o
                0x08019620                get_fattime
 .text.ff_memalloc
                0x08019630       0x10 build/obj/fatfs_syscall.o
                0x08019630                ff_memalloc
 .text.ff_memfree
                0x08019640       0x10 build/obj/fatfs_syscall.o
                0x08019640                ff_memfree
 .text.mem_cpy  0x08019650       0x60 build/obj/ff.o
 .text.mem_set  0x080196b0       0x40 build/obj/ff.o
 .text.chk_chr  0x080196f0       0x20 build/obj/ff.o
 .text.sum_sfn  0x08019710       0xb0 build/obj/ff.o
 .text.validate
                0x080197c0       0x40 build/obj/ff.o
 .text.move_window
                0x08019800      0x100 build/obj/ff.o
 .text.check_fs
                0x08019900       0xb0 build/obj/ff.o
 .text.chk_mounted
                0x080199b0      0x3f0 build/obj/ff.o
 .text.clust2sect
                0x08019da0       0x20 build/obj/ff.o
                0x08019da0                clust2sect
 .text.get_fat  0x08019dc0      0x110 build/obj/ff.o
                0x08019dc0                get_fat
 .text.dir_sdi  0x08019ed0       0xb0 build/obj/ff.o
 .text.put_fat  0x08019f80      0x130 build/obj/ff.o
                0x08019f80                put_fat
 .text.create_chain
                0x0801a0b0       0xd0 build/obj/ff.o
 .text.dir_next
                0x0801a180      0x160 build/obj/ff.o
 .text.dir_find
                0x0801a2e0      0x480 build/obj/ff.o
 .text.follow_path
                0x0801a760      0x420 build/obj/ff.o
 .text.gen_numname
                0x0801ab80      0x140 build/obj/ff.o
                0x0801ab80                gen_numname
 .text.f_mount  0x0801acc0       0x40 build/obj/ff.o
                0x0801acc0                f_mount
 .text.f_open   0x0801ad00      0x510 build/obj/ff.o
                0x0801ad00                f_open
 .text.f_write  0x0801b210      0x210 build/obj/ff.o
                0x0801b210                f_write
 .text.f_sync   0x0801b420      0x1a0 build/obj/ff.o
                0x0801b420                f_sync
 .text.f_close  0x0801b5c0       0x20 build/obj/ff.o
                0x0801b5c0                f_close
 .text.f_lseek  0x0801b5e0      0x1c0 build/obj/ff.o
                0x0801b5e0                f_lseek
 .text.f_opendir
                0x0801b7a0       0xa0 build/obj/ff.o
                0x0801b7a0                f_opendir
 .text.f_readdir
                0x0801b840      0x600 build/obj/ff.o
                0x0801b840                f_readdir
 .text.ff_convert
                0x0801be40       0x80 build/obj/ccsbcs.o
                0x0801be40                ff_convert
 .text.ff_wtoupper
                0x0801bec0       0x40 build/obj/ccsbcs.o
                0x0801bec0                ff_wtoupper
 .text.getCrankEventCounter
                0x0801bf00       0x10 build/obj/trigger_central.o
                0x0801bf00                getCrankEventCounter
 .text.registerShaftPositionListener
                0x0801bf10       0x30 build/obj/trigger_central.o
                0x0801bf10                registerShaftPositionListener
 .text.hwHandleShaftSignal
                0x0801bf40      0x1c0 build/obj/trigger_central.o
                0x0801bf40                hwHandleShaftSignal
 .text.printAllCallbacksHistogram
                0x0801c100       0x20 build/obj/trigger_central.o
                0x0801c100                printAllCallbacksHistogram
 .text.initTriggerCentral
                0x0801c120       0x60 build/obj/trigger_central.o
                0x0801c120                initTriggerCentral
 .text.initializeMazdaMiataNbShape
                0x0801c180      0x1e0 build/obj/trigger_mazda.o
                0x0801c180                initializeMazdaMiataNbShape
 .text.configureMazdaProtegeLx
                0x0801c360       0xd0 build/obj/trigger_mazda.o
                0x0801c360                configureMazdaProtegeLx
 .text.clearTriggerState
                0x0801c430       0x10 build/obj/trigger_structure.o
                0x0801c430                clearTriggerState
 .text.triggerShapeInit
                0x0801c440       0x10 build/obj/trigger_structure.o
                0x0801c440                triggerShapeInit
 .text.triggerAddEvent
                0x0801c450       0x90 build/obj/trigger_structure.o
                0x0801c450                triggerAddEvent
 .text.checkSwitchTimes
                0x0801c4e0       0xf0 build/obj/trigger_structure.o
                0x0801c4e0                checkSwitchTimes
 .text.isRunning
                0x0801c5d0       0x30 build/obj/rpm_calculator.o
                0x0801c5d0                isRunning
 .text.getRpm   0x0801c600       0x20 build/obj/rpm_calculator.o
                0x0801c600                getRpm
 .text.isCranking
                0x0801c620       0x20 build/obj/rpm_calculator.o
                0x0801c620                isCranking
 .text.getCrankshaftAngle
                0x0801c640       0x40 build/obj/rpm_calculator.o
                0x0801c640                getCrankshaftAngle
 .text.getRevolutionCounter
                0x0801c680       0x10 build/obj/rpm_calculator.o
                0x0801c680                getRevolutionCounter
 .text.addWaveChartEvent
                0x0801c690       0x20 build/obj/rpm_calculator.o
                0x0801c690                addWaveChartEvent
 .text.onTdcCallback
                0x0801c6b0       0x30 build/obj/rpm_calculator.o
 .text.shaftPositionCallback
                0x0801c6e0      0x190 build/obj/rpm_calculator.o
 .text.initRpmCalculator
                0x0801c870       0x70 build/obj/rpm_calculator.o
                0x0801c870                initRpmCalculator
 .text.scheduleByAngle
                0x0801c8e0       0x40 build/obj/rpm_calculator.o
                0x0801c8e0                scheduleByAngle
 .text.tdcMarkCallback
                0x0801c920       0x30 build/obj/rpm_calculator.o
 .text.deThread
                0x0801c950      0x140 build/obj/pwm_generator_logic.o
 .text.copyPwmParameters
                0x0801ca90       0xd0 build/obj/pwm_generator_logic.o
                0x0801ca90                copyPwmParameters
 .text.weComplexInit
                0x0801cb60      0x110 build/obj/pwm_generator_logic.o
                0x0801cb60                weComplexInit
 .text.setTimer
                0x0801cc70       0x30 build/obj/signal_temp.o
 .text.Vector108
                0x0801cca0       0x60 build/obj/signal_temp.o
                0x0801cca0                Vector108
 .text.TIM_Init
                0x0801cd00       0x60 build/obj/signal_temp.o
                0x0801cd00                TIM_Init
 .text.scheduleTask
                0x0801cd60       0x40 build/obj/signal_executor_sleep.o
                0x0801cd60                scheduleTask
 .text.initOutputSignal
                0x0801cda0       0x20 build/obj/signal_executor_sleep.o
                0x0801cda0                initOutputSignal
 .text.__fpclassifyd
                0x0801cdc0       0x68 c:/chibistudio/tools/gnu tools arm embedded/4.7 2013q2/bin/../lib/gcc/arm-none-eabi/4.7.4/../../../../arm-none-eabi/lib/armv7e-m\libm.a(lib_a-s_fpclassify.o)
                0x0801cdc0                __fpclassifyd
 *fill*         0x0801ce28        0x8 00
 .text.modf     0x0801ce30       0xbc c:/chibistudio/tools/gnu tools arm embedded/4.7 2013q2/bin/../lib/gcc/arm-none-eabi/4.7.4/../../../../arm-none-eabi/lib/armv7e-m\libm.a(lib_a-s_modf.o)
                0x0801ce30                modf
 *fill*         0x0801ceec        0x4 00
 .text.round    0x0801cef0       0xa0 c:/chibistudio/tools/gnu tools arm embedded/4.7 2013q2/bin/../lib/gcc/arm-none-eabi/4.7.4/../../../../arm-none-eabi/lib/armv7e-m\libm.a(lib_a-s_round.o)
                0x0801cef0                round
 .text.log      0x0801cf90       0xe4 c:/chibistudio/tools/gnu tools arm embedded/4.7 2013q2/bin/../lib/gcc/arm-none-eabi/4.7.4/../../../../arm-none-eabi/lib/armv7e-m\libm.a(lib_a-w_log.o)
                0x0801cf90                log
 *fill*         0x0801d074        0xc 00
 .text.pow      0x0801d080      0x310 c:/chibistudio/tools/gnu tools arm embedded/4.7 2013q2/bin/../lib/gcc/arm-none-eabi/4.7.4/../../../../arm-none-eabi/lib/armv7e-m\libm.a(lib_a-w_pow.o)
                0x0801d080                pow
 .text.__ieee754_log
                0x0801d390      0x3f8 c:/chibistudio/tools/gnu tools arm embedded/4.7 2013q2/bin/../lib/gcc/arm-none-eabi/4.7.4/../../../../arm-none-eabi/lib/armv7e-m\libm.a(lib_a-e_log.o)
                0x0801d390                __ieee754_log
 *fill*         0x0801d788        0x8 00
 .text.__ieee754_pow
                0x0801d790      0xb20 c:/chibistudio/tools/gnu tools arm embedded/4.7 2013q2/bin/../lib/gcc/arm-none-eabi/4.7.4/../../../../arm-none-eabi/lib/armv7e-m\libm.a(lib_a-e_pow.o)
                0x0801d790                __ieee754_pow
 .text.__ieee754_sqrt
                0x0801e2b0      0x208 c:/chibistudio/tools/gnu tools arm embedded/4.7 2013q2/bin/../lib/gcc/arm-none-eabi/4.7.4/../../../../arm-none-eabi/lib/armv7e-m\libm.a(lib_a-e_sqrt.o)
                0x0801e2b0                __ieee754_sqrt
 *fill*         0x0801e4b8        0x8 00
 .text.fabs     0x0801e4c0        0x8 c:/chibistudio/tools/gnu tools arm embedded/4.7 2013q2/bin/../lib/gcc/arm-none-eabi/4.7.4/../../../../arm-none-eabi/lib/armv7e-m\libm.a(lib_a-s_fabs.o)
                0x0801e4c0                fabs
 *fill*         0x0801e4c8        0x8 00
 .text.finite   0x0801e4d0        0xc c:/chibistudio/tools/gnu tools arm embedded/4.7 2013q2/bin/../lib/gcc/arm-none-eabi/4.7.4/../../../../arm-none-eabi/lib/armv7e-m\libm.a(lib_a-s_finite.o)
                0x0801e4d0                finite
 *fill*         0x0801e4dc        0x4 00
 .text.matherr  0x0801e4e0        0x4 c:/chibistudio/tools/gnu tools arm embedded/4.7 2013q2/bin/../lib/gcc/arm-none-eabi/4.7.4/../../../../arm-none-eabi/lib/armv7e-m\libm.a(lib_a-s_matherr.o)
                0x0801e4e0                matherr
 *fill*         0x0801e4e4        0xc 00
 .text.nan      0x0801e4f0        0xc c:/chibistudio/tools/gnu tools arm embedded/4.7 2013q2/bin/../lib/gcc/arm-none-eabi/4.7.4/../../../../arm-none-eabi/lib/armv7e-m\libm.a(lib_a-s_nan.o)
                0x0801e4f0                nan
 *fill*         0x0801e4fc        0x4 00
 .text.rint     0x0801e500      0x128 c:/chibistudio/tools/gnu tools arm embedded/4.7 2013q2/bin/../lib/gcc/arm-none-eabi/4.7.4/../../../../arm-none-eabi/lib/armv7e-m\libm.a(lib_a-s_rint.o)
                0x0801e500                rint
 *fill*         0x0801e628        0x8 00
 .text.scalbn   0x0801e630      0x108 c:/chibistudio/tools/gnu tools arm embedded/4.7 2013q2/bin/../lib/gcc/arm-none-eabi/4.7.4/../../../../arm-none-eabi/lib/armv7e-m\libm.a(lib_a-s_scalbn.o)
                0x0801e630                scalbn
 *fill*         0x0801e738        0x8 00
 .text.copysign
                0x0801e740       0x18 c:/chibistudio/tools/gnu tools arm embedded/4.7 2013q2/bin/../lib/gcc/arm-none-eabi/4.7.4/../../../../arm-none-eabi/lib/armv7e-m\libm.a(lib_a-s_copysign.o)
                0x0801e740                copysign
 *fill*         0x0801e758        0x8 00
 .text.__errno  0x0801e760        0xc c:/chibistudio/tools/gnu tools arm embedded/4.7 2013q2/bin/../lib/gcc/arm-none-eabi/4.7.4/../../../../arm-none-eabi/lib/armv7e-m\libc.a(lib_a-errno.o)
                0x0801e760                __errno
 *fill*         0x0801e76c        0x4 00
 .text.localtime_r
                0x0801e770        0x8 c:/chibistudio/tools/gnu tools arm embedded/4.7 2013q2/bin/../lib/gcc/arm-none-eabi/4.7.4/../../../../arm-none-eabi/lib/armv7e-m\libc.a(lib_a-lcltime_r.o)
                0x0801e770                localtime_r
 *fill*         0x0801e778        0x8 00
 .text.memcpy   0x0801e780      0x144 c:/chibistudio/tools/gnu tools arm embedded/4.7 2013q2/bin/../lib/gcc/arm-none-eabi/4.7.4/../../../../arm-none-eabi/lib/armv7e-m\libc.a(lib_a-memcpy.o)
                0x0801e780                memcpy
 *fill*         0x0801e8c4        0xc 00
 .text.memset   0x0801e8d0      0x12c c:/chibistudio/tools/gnu tools arm embedded/4.7 2013q2/bin/../lib/gcc/arm-none-eabi/4.7.4/../../../../arm-none-eabi/lib/armv7e-m\libc.a(lib_a-memset.o)
                0x0801e8d0                memset
 *fill*         0x0801e9fc        0x4 00
 .text.validate_structure
                0x0801ea00      0x20c c:/chibistudio/tools/gnu tools arm embedded/4.7 2013q2/bin/../lib/gcc/arm-none-eabi/4.7.4/../../../../arm-none-eabi/lib/armv7e-m\libc.a(lib_a-mktime.o)
 *fill*         0x0801ec0c        0x4 00
 .text.mktime   0x0801ec10      0x36c c:/chibistudio/tools/gnu tools arm embedded/4.7 2013q2/bin/../lib/gcc/arm-none-eabi/4.7.4/../../../../arm-none-eabi/lib/armv7e-m\libc.a(lib_a-mktime.o)
                0x0801ec10                mktime
 *fill*         0x0801ef7c        0x4 00
 .text.__tzcalc_limits
                0x0801ef80      0x1b8 c:/chibistudio/tools/gnu tools arm embedded/4.7 2013q2/bin/../lib/gcc/arm-none-eabi/4.7.4/../../../../arm-none-eabi/lib/armv7e-m\libc.a(lib_a-mktm_r.o)
                0x0801ef80                __tzcalc_limits
 *fill*         0x0801f138        0x8 00
 .text._mktm_r  0x0801f140      0x360 c:/chibistudio/tools/gnu tools arm embedded/4.7 2013q2/bin/../lib/gcc/arm-none-eabi/4.7.4/../../../../arm-none-eabi/lib/armv7e-m\libc.a(lib_a-mktm_r.o)
                0x0801f140                _mktm_r
 .text.strcat   0x0801f4a0       0x4c c:/chibistudio/tools/gnu tools arm embedded/4.7 2013q2/bin/../lib/gcc/arm-none-eabi/4.7.4/../../../../arm-none-eabi/lib/armv7e-m\libc.a(lib_a-strcat.o)
                0x0801f4a0                strcat
 *fill*         0x0801f4ec        0x4 00
 .text.strchr   0x0801f4f0       0xfc c:/chibistudio/tools/gnu tools arm embedded/4.7 2013q2/bin/../lib/gcc/arm-none-eabi/4.7.4/../../../../arm-none-eabi/lib/armv7e-m\libc.a(lib_a-strchr.o)
                0x0801f4f0                strchr
 *fill*         0x0801f5ec        0x4 00
 .text.strcpy   0x0801f5f0       0xbc c:/chibistudio/tools/gnu tools arm embedded/4.7 2013q2/bin/../lib/gcc/arm-none-eabi/4.7.4/../../../../arm-none-eabi/lib/armv7e-m\libc.a(lib_a-strcpy.o)
                0x0801f5f0                strcpy
 *fill*         0x0801f6ac        0x4 00
 .text.strlen   0x0801f6b0       0x60 c:/chibistudio/tools/gnu tools arm embedded/4.7 2013q2/bin/../lib/gcc/arm-none-eabi/4.7.4/../../../../arm-none-eabi/lib/armv7e-m\libc.a(lib_a-strlen.o)
                0x0801f6b0                strlen
 .text.strncmp  0x0801f710      0x120 c:/chibistudio/tools/gnu tools arm embedded/4.7 2013q2/bin/../lib/gcc/arm-none-eabi/4.7.4/../../../../arm-none-eabi/lib/armv7e-m\libc.a(lib_a-strncmp.o)
                0x0801f710                strncmp
 .text.strrchr  0x0801f830       0x28 c:/chibistudio/tools/gnu tools arm embedded/4.7 2013q2/bin/../lib/gcc/arm-none-eabi/4.7.4/../../../../arm-none-eabi/lib/armv7e-m\libc.a(lib_a-strrchr.o)
                0x0801f830                strrchr
 *fill*         0x0801f858        0x8 00
 .text.critical_factorization
                0x0801f860       0xbc c:/chibistudio/tools/gnu tools arm embedded/4.7 2013q2/bin/../lib/gcc/arm-none-eabi/4.7.4/../../../../arm-none-eabi/lib/armv7e-m\libc.a(lib_a-strstr.o)
 *fill*         0x0801f91c        0x4 00
 .text.two_way_long_needle
                0x0801f920      0x318 c:/chibistudio/tools/gnu tools arm embedded/4.7 2013q2/bin/../lib/gcc/arm-none-eabi/4.7.4/../../../../arm-none-eabi/lib/armv7e-m\libc.a(lib_a-strstr.o)
 *fill*         0x0801fc38        0x8 00
 .text.strstr   0x0801fc40      0x2f0 c:/chibistudio/tools/gnu tools arm embedded/4.7 2013q2/bin/../lib/gcc/arm-none-eabi/4.7.4/../../../../arm-none-eabi/lib/armv7e-m\libc.a(lib_a-strstr.o)
                0x0801fc40                strstr
 .text.__tz_lock
                0x0801ff30        0x4 c:/chibistudio/tools/gnu tools arm embedded/4.7 2013q2/bin/../lib/gcc/arm-none-eabi/4.7.4/../../../../arm-none-eabi/lib/armv7e-m\libc.a(lib_a-tzlock.o)
                0x0801ff30                __tz_lock
 *fill*         0x0801ff34        0xc 00
 .text.__tz_unlock
                0x0801ff40        0x4 c:/chibistudio/tools/gnu tools arm embedded/4.7 2013q2/bin/../lib/gcc/arm-none-eabi/4.7.4/../../../../arm-none-eabi/lib/armv7e-m\libc.a(lib_a-tzlock.o)
                0x0801ff40                __tz_unlock
 *fill*         0x0801ff44        0xc 00
 .text.div      0x0801ff50       0x2c c:/chibistudio/tools/gnu tools arm embedded/4.7 2013q2/bin/../lib/gcc/arm-none-eabi/4.7.4/../../../../arm-none-eabi/lib/armv7e-m\libc.a(lib_a-div.o)
                0x0801ff50                div
 *fill*         0x0801ff7c        0x4 00
 .text.__gettzinfo
                0x0801ff80        0xc c:/chibistudio/tools/gnu tools arm embedded/4.7 2013q2/bin/../lib/gcc/arm-none-eabi/4.7.4/../../../../arm-none-eabi/lib/armv7e-m\libc.a(lib_a-gettzinfo.o)
                0x0801ff80                __gettzinfo
 *fill*         0x0801ff8c        0x4 00
 .text.memchr   0x0801ff90      0x140 c:/chibistudio/tools/gnu tools arm embedded/4.7 2013q2/bin/../lib/gcc/arm-none-eabi/4.7.4/../../../../arm-none-eabi/lib/armv7e-m\libc.a(lib_a-memchr.o)
                0x0801ff90                memchr
 .text.memcmp   0x080200d0       0xb8 c:/chibistudio/tools/gnu tools arm embedded/4.7 2013q2/bin/../lib/gcc/arm-none-eabi/4.7.4/../../../../arm-none-eabi/lib/armv7e-m\libc.a(lib_a-memcmp.o)
                0x080200d0                memcmp
 *(.rodata)
 *fill*         0x08020188        0x8 00
 .rodata        0x08020190       0x10 build/obj/rtc_helper.o
 .rodata        0x080201a0       0xc4 build/obj/trigger_decoder.o
 *fill*         0x08020264        0xc 00
 .rodata        0x08020270      0x170 build/obj/main_trigger_callback.o
 .rodata        0x080203e0       0x30 build/obj/trigger_emulator.o
 .rodata        0x08020410      0x368 build/obj/rfi_perftest.o
 *fill*         0x08020778        0x8 00
 .rodata        0x08020780       0x78 build/obj/engine_emulator.o
 *fill*         0x080207f8        0x8 00
 .rodata        0x08020800       0x1c build/obj/OutputSignalArray.o
 *fill*         0x0802081c        0x4 00
 .rodata        0x08020820       0x88 build/obj/trigger_emulator_algo.o
 *fill*         0x080208a8        0x8 00
 .rodata        0x080208b0      0x7fc build/obj/settings.o
 *fill*         0x080210ac        0x4 00
 .rodata        0x080210b0       0xbc build/obj/engine_controller.o
 *fill*         0x0802116c        0x4 00
 .rodata        0x08021170      0x164 build/obj/engine_math.o
 *fill*         0x080212d4        0xc 00
 .rodata        0x080212e0       0xbc build/obj/rusefi.o
 *(.rodata.*)
 *fill*         0x0802139c        0x4 00
 .rodata.str1.4
                0x080213a0        0x5 build/obj/chsys.o
                                  0x8 (size before relaxing)
 *fill*         0x080213a5        0xb 00
 .rodata.str1.4
                0x080213b0       0xbd build/obj/chdebug.o
                                 0xc0 (size before relaxing)
 *fill*         0x0802146d        0x3 00
 .rodata.str1.4
                0x08021470       0x51 build/obj/chvt.o
                                 0x54 (size before relaxing)
 *fill*         0x080214c1        0xf 00
 .rodata.str1.4
                0x080214d0       0x12 build/obj/chschd.o
                                 0x14 (size before relaxing)
 *fill*         0x080214e2        0xe 00
 .rodata.str1.4
                0x080214f0       0xb8 build/obj/chthreads.o
 *fill*         0x080215a8        0x8 00
 .rodata.str1.4
                0x080215b0       0x6a build/obj/chdynamic.o
                                 0x6c (size before relaxing)
 *fill*         0x0802161a        0x6 00
 .rodata.ch_debug
                0x08021620       0x18 build/obj/chregistry.o
                0x08021620                ch_debug
 *fill*         0x08021638        0x8 00
 .rodata.str1.4
                0x08021640       0x16 build/obj/chregistry.o
                                 0x18 (size before relaxing)
 *fill*         0x08021656        0xa 00
 .rodata.str1.4
                0x08021660      0x166 build/obj/chsem.o
                                0x168 (size before relaxing)
 *fill*         0x080217c6        0xa 00
 .rodata.str1.4
                0x080217d0       0xcb build/obj/chmtx.o
                                 0xcc (size before relaxing)
 *fill*         0x0802189b        0x5 00
 .rodata.str1.4
                0x080218a0       0xb4 build/obj/chevents.o
 *fill*         0x08021954        0xc 00
 .rodata.str1.4
                0x08021960       0x4d build/obj/chqueues.o
                                 0x50 (size before relaxing)
 *fill*         0x080219ad        0x3 00
 .rodata.str1.4
                0x080219b0       0x51 build/obj/chheap.o
                                 0x54 (size before relaxing)
 *fill*         0x08021a01        0xf 00
 .rodata.str1.4
                0x08021a10       0x6c build/obj/chmempools.o
 *fill*         0x08021a7c        0x4 00
 .rodata.str1.4
                0x08021a80        0x7 build/obj/chprintf.o
                                  0x8 (size before relaxing)
 *fill*         0x08021a87        0x9 00
 .rodata.vmt    0x08021a90       0x10 build/obj/memstreams.o
 .rodata.str1.4
                0x08021aa0       0x2c build/obj/listener_array.o
 *fill*         0x08021acc        0x4 00
 .rodata.confidence_bounds
                0x08021ad0        0xc build/obj/histogram.o
 *fill*         0x08021adc        0x4 00
 .rodata.str1.4
                0x08021ae0       0x60 build/obj/histogram.o
 .rodata.str1.4
                0x08021b40      0x116 build/obj/eficonsole_logic.o
                                0x124 (size before relaxing)
 *fill*         0x08021c56        0xa 00
 .rodata.states.9057
                0x08021c60       0x3c build/obj/eficonsole.o
 *fill*         0x08021c9c        0x4 00
 .rodata.str1.4
                0x08021ca0      0x3c2 build/obj/eficonsole.o
                                0x3cc (size before relaxing)
 *fill*         0x08022062        0xe 00
 .rodata.str1.4
                0x08022070        0xf build/obj/console_io.o
                                 0x10 (size before relaxing)
 *fill*         0x0802207f        0x1 00
 .rodata.str1.4
                0x08022080      0x188 build/obj/status_loop.o
                                0x19c (size before relaxing)
 *fill*         0x08022208        0x8 00
 .rodata.str1.4
                0x08022210       0x4b build/obj/tunerstudio_algo.o
                                 0x4c (size before relaxing)
 *fill*         0x0802225b        0x5 00
 .rodata.str1.4
                0x08022260      0x1e3 build/obj/tunerstudio.o
                                0x1e8 (size before relaxing)
 *fill*         0x08022443        0xd 00
 .rodata.str1.4
                0x08022450      0x14b build/obj/datalogging.o
                                0x15c (size before relaxing)
 *fill*         0x0802259b        0x5 00
 .rodata.str1.4
                0x080225a0       0x16 build/obj/rfiutil.o
                                 0x18 (size before relaxing)
 *fill*         0x080225b6        0xa 00
 .rodata.str1.4
                0x080225c0      0x12a build/obj/adc.o
                                0x12c (size before relaxing)
 *fill*         0x080226ea        0x6 00
 .rodata.str1.4
                0x080226f0      0x106 build/obj/i2c.o
                                0x108 (size before relaxing)
 *fill*         0x080227f6        0xa 00
 .rodata.str1.4
                0x08022800       0x99 build/obj/icu.o
                                 0x9c (size before relaxing)
 *fill*         0x08022899        0x7 00
 .rodata.crc7_lookup_table
                0x080228a0      0x100 build/obj/mmc_spi.o
 .rodata.start.8355
                0x080229a0        0x4 build/obj/mmc_spi.o
 *fill*         0x080229a4        0xc 00
 .rodata.mmc_vmt
                0x080229b0       0x20 build/obj/mmc_spi.o
 .rodata.str1.4
                0x080229d0      0x1b1 build/obj/mmc_spi.o
                                0x1b4 (size before relaxing)
 *fill*         0x08022b81        0xf 00
 .rodata.stopcmd.8346
                0x08022b90        0x8 build/obj/mmc_spi.o
 *fill*         0x08022b98        0x8 00
 .rodata.stop.8360
                0x08022ba0        0x4 build/obj/mmc_spi.o
 *fill*         0x08022ba4        0xc 00
 .rodata.str1.4
                0x08022bb0       0x2f build/obj/mmcsd.o
                                 0x30 (size before relaxing)
 *fill*         0x08022bdf        0x1 00
 .rodata.str1.4
                0x08022be0       0xcc build/obj/pwm.o
 *fill*         0x08022cac        0x4 00
 .rodata.str1.4
                0x08022cb0       0x5c build/obj/rtc.o
 *fill*         0x08022d0c        0x4 00
 .rodata.str1.4
                0x08022d10       0x7b build/obj/serial.o
                                 0x7c (size before relaxing)
 *fill*         0x08022d8b        0x5 00
 .rodata.vmt    0x08022d90       0x20 build/obj/serial.o
 .rodata.str1.4
                0x08022db0       0x4e build/obj/serial_usb.o
                                 0x5c (size before relaxing)
 *fill*         0x08022dfe        0x2 00
 .rodata.vmt    0x08022e00       0x20 build/obj/serial_usb.o
 .rodata.str1.4
                0x08022e20      0x252 build/obj/spi.o
                                0x254 (size before relaxing)
 *fill*         0x08023072        0xe 00
 .rodata.zero_status
                0x08023080        0x4 build/obj/usb.o
 *fill*         0x08023084        0xc 00
 .rodata.active_status
                0x08023090        0x4 build/obj/usb.o
 *fill*         0x08023094        0xc 00
 .rodata.str1.4
                0x080230a0      0x13e build/obj/usb.o
                                0x140 (size before relaxing)
 *fill*         0x080231de        0x2 00
 .rodata.halted_status
                0x080231e0        0x4 build/obj/usb.o
 *fill*         0x080231e4        0xc 00
 .rodata.str1.4
                0x080231f0       0x25 build/obj/analog_chart.o
                                 0x34 (size before relaxing)
 *fill*         0x08023215        0xb 00
 .rodata.str1.4
                0x08023220       0xeb build/obj/wave_analyzer.o
                                 0xf8 (size before relaxing)
 *fill*         0x0802330b        0x5 00
 .rodata.str1.4
                0x08023310       0x60 build/obj/hardware.o
 .rodata.adcgrpcfg_fast
                0x08023370       0x28 build/obj/adc_inputs.o
 *fill*         0x08023398        0x8 00
 .rodata.str1.4
                0x080233a0       0x99 build/obj/adc_inputs.o
                                 0x9c (size before relaxing)
 *fill*         0x08023439        0x7 00
 .rodata.str1.4
                0x08023440       0x50 build/obj/trigger_input.o
 .rodata.str1.4
                0x08023490      0x15d build/obj/pin_repository.o
                                0x16c (size before relaxing)
 *fill*         0x080235ed        0x3 00
 .rodata.PORTS  0x080235f0       0x20 build/obj/io_pins.o
 .rodata.str1.4
                0x08023610      0x11a build/obj/io_pins.o
                                0x11c (size before relaxing)
 *fill*         0x0802372a        0x6 00
 .rodata.str1.4
                0x08023730       0xd3 build/obj/lcd_HD44780.o
                                 0xd4 (size before relaxing)
 *fill*         0x08023803        0xd 00
 .rodata.lineStart
                0x08023810       0x10 build/obj/lcd_HD44780.o
 .rodata.ep1config
                0x08023820       0x24 build/obj/usbcfg.o
 *fill*         0x08023844        0xc 00
 .rodata.vcom_configuration_descriptor_data
                0x08023850       0x44 build/obj/usbcfg.o
 *fill*         0x08023894        0xc 00
 .rodata.vcom_configuration_descriptor
                0x080238a0        0x8 build/obj/usbcfg.o
 *fill*         0x080238a8        0x8 00
 .rodata.ep2config
                0x080238b0       0x24 build/obj/usbcfg.o
 *fill*         0x080238d4        0xc 00
 .rodata.usbcfg
                0x080238e0       0x10 build/obj/usbcfg.o
                0x080238e0                usbcfg
 .rodata.vcom_device_descriptor_data
                0x080238f0       0x14 build/obj/usbcfg.o
 *fill*         0x08023904        0xc 00
 .rodata.vcom_string0
                0x08023910        0x4 build/obj/usbcfg.o
 *fill*         0x08023914        0xc 00
 .rodata.vcom_string1
                0x08023920       0x28 build/obj/usbcfg.o
 *fill*         0x08023948        0x8 00
 .rodata.vcom_string2
                0x08023950       0x38 build/obj/usbcfg.o
 *fill*         0x08023988        0x8 00
 .rodata.vcom_string3
                0x08023990        0x8 build/obj/usbcfg.o
 *fill*         0x08023998        0x8 00
 .rodata.vcom_strings
                0x080239a0       0x20 build/obj/usbcfg.o
 .rodata.serusbcfg
                0x080239c0        0x8 build/obj/usbcfg.o
                0x080239c0                serusbcfg
 *fill*         0x080239c8        0x8 00
 .rodata.vcom_device_descriptor
                0x080239d0        0x8 build/obj/usbcfg.o
 *fill*         0x080239d8        0x8 00
 .rodata.str1.4
                0x080239e0      0x13e build/obj/rtc_helper.o
                                0x140 (size before relaxing)
 *fill*         0x08023b1e        0x2 00
 .rodata.str1.4
                0x08023b20      0x273 build/obj/mmc_card.o
                                0x298 (size before relaxing)
 *fill*         0x08023d93        0xd 00
 .rodata.str1.4
                0x08023da0       0xac build/obj/neo6m.o
 *fill*         0x08023e4c        0x4 00
 .rodata.str1.4
                0x08023e50       0x4f build/obj/wave_analyzer_hw.o
                                 0x50 (size before relaxing)
 *fill*         0x08023e9f        0x1 00
 .rodata.str1.4
                0x08023ea0       0x30 build/obj/pwm_generator.o
 .rodata.str1.4
                0x08023ed0      0x137 build/obj/injector_central.o
                                0x140 (size before relaxing)
 *fill*         0x08024007        0x9 00
 .rodata.str1.4
                0x08024010       0x3e build/obj/ignition_central.o
                                 0x40 (size before relaxing)
 *fill*         0x0802404e        0x2 00
 .rodata.str1.4
                0x08024050      0x138 build/obj/flash_main.o
 *fill*         0x08024188        0x8 00
 .rodata.str1.4
                0x08024190        0xc build/obj/malfunction_indicator.o
 *fill*         0x0802419c        0x4 00
 .rodata.str1.4
                0x080241a0        0xf build/obj/error_handling.o
                                 0x14 (size before relaxing)
 *fill*         0x080241af        0x1 00
 .rodata.str1.4
                0x080241b0       0x3d build/obj/map_averaging.o
                                 0x40 (size before relaxing)
 *fill*         0x080241ed        0x3 00
 .rodata.str1.4
                0x080241f0       0x47 build/obj/fuel_math.o
                                 0x68 (size before relaxing)
 *fill*         0x08024237        0x9 00
 .rodata.str1.4
                0x08024240       0x15 build/obj/advance_map.o
                                 0x18 (size before relaxing)
 *fill*         0x08024255        0xb 00
 .rodata.str1.4
                0x08024260       0x7f build/obj/engine_configuration.o
                                 0x80 (size before relaxing)
 *fill*         0x080242df        0x1 00
 .rodata.str1.4
                0x080242e0       0xd0 build/obj/signal_executor.o
                                 0xe0 (size before relaxing)
 .rodata.str1.4
                0x080243b0       0xc2 build/obj/interpolation.o
                                 0xc4 (size before relaxing)
 *fill*         0x08024472        0xe 00
 .rodata.str1.4
                0x08024480       0x4c build/obj/event_registry.o
 *fill*         0x080244cc        0x4 00
 .rodata.str1.4
                0x080244d0       0xe3 build/obj/wave_chart.o
                                 0xec (size before relaxing)
 *fill*         0x080245b3        0xd 00
 .rodata.str1.4
                0x080245c0        0xf build/obj/nmea.o
                                 0x10 (size before relaxing)
 *fill*         0x080245cf        0x1 00
 .rodata.str1.4
                0x080245d0       0x26 build/obj/tps.o
                                 0x28 (size before relaxing)
 *fill*         0x080245f6        0xa 00
 .rodata.str1.4
                0x08024600       0x15 build/obj/map.o
                                 0x18 (size before relaxing)
 *fill*         0x08024615        0xb 00
 .rodata.str1.4
                0x08024620       0x8a build/obj/thermistors.o
                                 0x8c (size before relaxing)
 *fill*         0x080246aa        0x6 00
 .rodata.str1.4
                0x080246b0       0x77 build/obj/stm32_dma.o
                                 0x78 (size before relaxing)
 *fill*         0x08024727        0x9 00
 .rodata._stm32_dma_streams
                0x08024730       0xc0 build/obj/stm32_dma.o
                0x08024730                _stm32_dma_streams
 .rodata.str1.4
                0x080247f0       0x28 build/obj/adc_lld.o
 *fill*         0x08024818        0x8 00
 .rodata.fsparams
                0x08024820        0xc build/obj/usb_lld.o
 *fill*         0x0802482c        0x4 00
 .rodata.str1.4
                0x08024830       0x25 build/obj/usb_lld.o
                                 0x28 (size before relaxing)
 *fill*         0x08024855        0xb 00
 .rodata.ep0config
                0x08024860       0x24 build/obj/usb_lld.o
 *fill*         0x08024884        0xc 00
 .rodata.str1.4
                0x08024890       0x28 build/obj/spi_lld.o
 *fill*         0x080248b8        0x8 00
 .rodata.str1.4
                0x080248c0       0x14 build/obj/icu_lld.o
 *fill*         0x080248d4        0xc 00
 .rodata.str1.4
                0x080248e0       0x14 build/obj/pwm_lld.o
 *fill*         0x080248f4        0xc 00
 .rodata.default_config
                0x08024900        0xc build/obj/serial_lld.o
 *fill*         0x0802490c        0x4 00
 .rodata.pal_default_config
                0x08024910       0xfc build/obj/board.o
                0x08024910                pal_default_config
 *fill*         0x08024a0c        0x4 00
 .rodata.excvt.5277
                0x08024a10       0x80 build/obj/ff.o
 .rodata.str1.4
                0x08024a90       0x13 build/obj/ff.o
                                 0x14 (size before relaxing)
 *fill*         0x08024aa3        0xd 00
 .rodata.LfnOfs
                0x08024ab0       0x10 build/obj/ff.o
 .rodata.tbl_lower.5034
                0x08024ac0      0x1e0 build/obj/ccsbcs.o
 .rodata.Tbl    0x08024ca0      0x100 build/obj/ccsbcs.o
 .rodata.tbl_upper.5035
                0x08024da0      0x1e0 build/obj/ccsbcs.o
 .rodata.str1.4
                0x08024f80       0xda build/obj/trigger_central.o
                                 0xdc (size before relaxing)
 *fill*         0x0802505a        0x6 00
 .rodata.str1.4
                0x08025060       0x42 build/obj/trigger_structure.o
                                 0x44 (size before relaxing)
 *fill*         0x080250a2        0xe 00
 .rodata.str1.4
                0x080250b0       0x2b build/obj/rpm_calculator.o
                                 0x50 (size before relaxing)
 *fill*         0x080250db        0x5 00
 .rodata.str1.4
                0x080250e0       0xf1 build/obj/pwm_generator_logic.o
                                 0xf4 (size before relaxing)
 *fill*         0x080251d1        0xf 00
 .rodata.str1.4
                0x080251e0        0x4 c:/chibistudio/tools/gnu tools arm embedded/4.7 2013q2/bin/../lib/gcc/arm-none-eabi/4.7.4/../../../../arm-none-eabi/lib/armv7e-m\libm.a(lib_a-w_log.o)
                                  0x8 (size before relaxing)
 *fill*         0x080251e4        0xc 00
 .rodata.str1.4
                0x080251f0        0x4 c:/chibistudio/tools/gnu tools arm embedded/4.7 2013q2/bin/../lib/gcc/arm-none-eabi/4.7.4/../../../../arm-none-eabi/lib/armv7e-m\libm.a(lib_a-w_pow.o)
 *fill*         0x080251f4        0xc 00
 .rodata.dp_h   0x08025200       0x10 c:/chibistudio/tools/gnu tools arm embedded/4.7 2013q2/bin/../lib/gcc/arm-none-eabi/4.7.4/../../../../arm-none-eabi/lib/armv7e-m\libm.a(lib_a-e_pow.o)
 .rodata.dp_l   0x08025210       0x10 c:/chibistudio/tools/gnu tools arm embedded/4.7 2013q2/bin/../lib/gcc/arm-none-eabi/4.7.4/../../../../arm-none-eabi/lib/armv7e-m\libm.a(lib_a-e_pow.o)
 .rodata.bp     0x08025220       0x10 c:/chibistudio/tools/gnu tools arm embedded/4.7 2013q2/bin/../lib/gcc/arm-none-eabi/4.7.4/../../../../arm-none-eabi/lib/armv7e-m\libm.a(lib_a-e_pow.o)
 .rodata.str1.4
                0x00000000        0x4 c:/chibistudio/tools/gnu tools arm embedded/4.7 2013q2/bin/../lib/gcc/arm-none-eabi/4.7.4/../../../../arm-none-eabi/lib/armv7e-m\libm.a(lib_a-e_pow.o)
 .rodata.TWO52  0x08025230       0x10 c:/chibistudio/tools/gnu tools arm embedded/4.7 2013q2/bin/../lib/gcc/arm-none-eabi/4.7.4/../../../../arm-none-eabi/lib/armv7e-m\libm.a(lib_a-s_rint.o)
 .rodata.str1.4
                0x08025240        0x4 c:/chibistudio/tools/gnu tools arm embedded/4.7 2013q2/bin/../lib/gcc/arm-none-eabi/4.7.4/../../../../arm-none-eabi/lib/armv7e-m\libc.a(lib_a-impure.o)
 *fill*         0x08025244        0xc 00
 .rodata._DAYS_BEFORE_MONTH
                0x08025250       0x30 c:/chibistudio/tools/gnu tools arm embedded/4.7 2013q2/bin/../lib/gcc/arm-none-eabi/4.7.4/../../../../arm-none-eabi/lib/armv7e-m\libc.a(lib_a-mktime.o)
 .rodata.DAYS_IN_MONTH
                0x08025280       0x30 c:/chibistudio/tools/gnu tools arm embedded/4.7 2013q2/bin/../lib/gcc/arm-none-eabi/4.7.4/../../../../arm-none-eabi/lib/armv7e-m\libc.a(lib_a-mktime.o)
 .rodata.mon_lengths
                0x080252b0       0x60 c:/chibistudio/tools/gnu tools arm embedded/4.7 2013q2/bin/../lib/gcc/arm-none-eabi/4.7.4/../../../../arm-none-eabi/lib/armv7e-m\libc.a(lib_a-mktm_r.o)
 .rodata.year_lengths
                0x08025310        0x8 c:/chibistudio/tools/gnu tools arm embedded/4.7 2013q2/bin/../lib/gcc/arm-none-eabi/4.7.4/../../../../arm-none-eabi/lib/armv7e-m\libc.a(lib_a-mktm_r.o)
 *(.glue_7t)
 .glue_7t       0x00000000        0x0 linker stubs
 *(.glue_7)
 .glue_7        0x00000000        0x0 linker stubs
 *(.gcc*)

.vfp11_veneer   0x08025318        0x0
 .vfp11_veneer  0x00000000        0x0 linker stubs

.v4_bx          0x08025318        0x0
 .v4_bx         0x00000000        0x0 linker stubs

.iplt           0x08025318        0x0
 .iplt          0x00000000        0x0 build/obj/crt0.o

.ARM.extab
 *(.ARM.extab* .gnu.linkonce.armextab.*)

.ARM.exidx      0x08025318        0x8
                0x08025318                PROVIDE (__exidx_start, .)
 *(.ARM.exidx* .gnu.linkonce.armexidx.*)
 .ARM.exidx     0x08025318        0x8 c:/chibistudio/tools/gnu tools arm embedded/4.7 2013q2/bin/../lib/gcc/arm-none-eabi/4.7.4/armv7e-m\libgcc.a(_divdi3.o)
 .ARM.exidx     0x08025320        0x0 c:/chibistudio/tools/gnu tools arm embedded/4.7 2013q2/bin/../lib/gcc/arm-none-eabi/4.7.4/armv7e-m\libgcc.a(_udivdi3.o)
                                  0x8 (size before relaxing)
                0x08025320                PROVIDE (__exidx_end, .)

.rel.dyn        0x08025320        0x0
 .rel.iplt      0x00000000        0x0 build/obj/crt0.o

.eh_frame_hdr
 *(.eh_frame_hdr)

.eh_frame
 *(.eh_frame)

.textalign      0x08025320        0x0
                0x08025320                . = ALIGN (0x8)
                0x08025320                _etext = .
                0x08025320                _textdata = _etext

.stacks         0x20000000      0x800
                0x20000000                . = ALIGN (0x8)
                0x20000000                __main_stack_base__ = .
                0x20000400                . = (. + __main_stack_size__)
 *fill*         0x20000000      0x400 00
                0x20000400                . = ALIGN (0x8)
                0x20000400                __main_stack_end__ = .
                0x20000400                __process_stack_base__ = .
                0x20000400                __main_thread_stack_base__ = .
                0x20000800                . = (. + __process_stack_size__)
 *fill*         0x20000400      0x400 00
                0x20000800                . = ALIGN (0x8)
                0x20000800                __process_stack_end__ = .
                0x20000800                __main_thread_stack_end__ = .

.ccm            0x10000000      0x220
                0x10000000                PROVIDE (_cmm_start, .)
                0x10000000                . = ALIGN (0x4)
 *(.bss.mainthread.*)
 .bss.mainthread.4841
                0x10000000       0x4c build/obj/chsys.o
                0x1000004c                . = ALIGN (0x4)
 *(.bss._idle_thread_wa)
 *fill*         0x1000004c        0x4 00
 .bss._idle_thread_wa
                0x10000050      0x178 build/obj/chsys.o
                0x10000050                _idle_thread_wa
                0x100001c8                . = ALIGN (0x4)
 *(.bss.rlist)
 .bss.rlist     0x100001c8       0x1c build/obj/chschd.o
                0x100001c8                rlist
                0x100001e4                . = ALIGN (0x4)
 *(.bss.vtlist)
 .bss.vtlist    0x100001e4       0x10 build/obj/chvt.o
                0x100001e4                vtlist
                0x100001f4                . = ALIGN (0x4)
 *(.bss.endmem)
 .bss.endmem    0x100001f4        0x4 build/obj/chmemcore.o
                0x100001f8                . = ALIGN (0x4)
 *(.bss.nextmem)
 .bss.nextmem   0x100001f8        0x4 build/obj/chmemcore.o
                0x100001fc                . = ALIGN (0x4)
 *(.bss.default_heap)
 *fill*         0x100001fc        0x4 00
 .bss.default_heap
                0x10000200       0x20 build/obj/chheap.o
                0x10000220                . = ALIGN (0x4)
                0x10000220                PROVIDE (_cmm_end, .)

.data           0x20000800      0xe24 load address 0x08025320
                0x20000800                . = ALIGN (0x4)
                0x20000800                PROVIDE (_data, .)
 *(.data)
 .data          0x20000800      0x800 build/obj/ford_aspire.o
 .data          0x20001000        0x4 build/obj/engine_controller.o
                0x20001000                engineConfiguration2
 .data          0x20001004       0x28 build/obj/engine_math.o
                0x2000102c                . = ALIGN (0x4)
 *(.data.*)
 .data.consoleInput
                0x2000102c       0x50 build/obj/console_io.o
 .data.warningEnabled
                0x2000107c        0x4 build/obj/status_loop.o
                0x2000107c                warningEnabled
 .data.prevCkpEventCounter
                0x20001080        0x4 build/obj/status_loop.o
 .data.fullLog  0x20001084        0x4 build/obj/status_loop.o
 .data.timeOfPreviousReport
                0x20001088        0x4 build/obj/status_loop.o
 .data.timeOfPreviousPrintVersion
                0x2000108c        0x4 build/obj/status_loop.o
 .data.tsSerialConfig
                0x20001090        0xc build/obj/tunerstudio.o
 .data.linecoding
                0x2000109c        0x8 build/obj/serial_usb.o
 .data.pwmcfg_slow
                0x200010a4       0x34 build/obj/adc_inputs.o
 .data.pwmcfg_fast
                0x200010d8       0x34 build/obj/adc_inputs.o
 .data.adcgrpcfg_slow
                0x2000110c       0x28 build/obj/adc_inputs.o
 .data.shaft_icucfg
                0x20001134       0x1c build/obj/trigger_input.o
 .data.mmccfg   0x20001150        0xc build/obj/mmc_card.o
 .data.hs_spicfg
                0x2000115c        0xc build/obj/mmc_card.o
 .data.ls_spicfg
                0x20001168        0xc build/obj/mmc_card.o
 .data.GPSserialConfig
                0x20001174        0xc build/obj/neo6m.o
 .data.wave_icucfg
                0x20001180       0x1c build/obj/wave_analyzer_hw.o
 .data.engineConfiguration
                0x2000119c        0x4 build/obj/flash_main.o
                0x2000119c                engineConfiguration
 .data.boardConfiguration
                0x200011a0        0x4 build/obj/flash_main.o
                0x200011a0                boardConfiguration
 .data.timeOfPreviousWarning
                0x200011a4        0x4 build/obj/error_handling.o
 .data.chartSize
                0x200011a8        0x4 build/obj/wave_chart.o
 .data.isChartActive
                0x200011ac        0x4 build/obj/wave_chart.o
 .data.previousShaftEventTime
                0x200011b0        0x4 build/obj/trigger_central.o
 .data.__fdlib_version
                0x200011b4        0x1 c:/chibistudio/tools/gnu tools arm embedded/4.7 2013q2/bin/../lib/gcc/arm-none-eabi/4.7.4/../../../../arm-none-eabi/lib/armv7e-m\libm.a(lib_a-s_lib_ver.o)
                0x200011b4                __fdlib_version
 *fill*         0x200011b5        0x3 00
 .data.impure_data
                0x200011b8      0x428 c:/chibistudio/tools/gnu tools arm embedded/4.7 2013q2/bin/../lib/gcc/arm-none-eabi/4.7.4/../../../../arm-none-eabi/lib/armv7e-m\libc.a(lib_a-impure.o)
 .data._impure_ptr
                0x200015e0        0x4 c:/chibistudio/tools/gnu tools arm embedded/4.7 2013q2/bin/../lib/gcc/arm-none-eabi/4.7.4/../../../../arm-none-eabi/lib/armv7e-m\libc.a(lib_a-impure.o)
                0x200015e0                _impure_ptr
 .data.tzinfo   0x200015e4       0x40 c:/chibistudio/tools/gnu tools arm embedded/4.7 2013q2/bin/../lib/gcc/arm-none-eabi/4.7.4/../../../../arm-none-eabi/lib/armv7e-m\libc.a(lib_a-gettzinfo.o)
                0x20001624                . = ALIGN (0x4)
 *(.ramtext)
                0x20001624                . = ALIGN (0x4)
                0x20001624                PROVIDE (_edata, .)

.igot.plt       0x20001624        0x0 load address 0x08026144
 .igot.plt      0x00000000        0x0 build/obj/crt0.o

.ccm            0x20001628     0x5c48 load address 0x08026144
 .ccm           0x20001628     0x2328 build/obj/datalogging.o
 .ccm           0x20003950      0xd60 build/obj/flash_main.o
                0x20003950                flashState
 .ccm           0x200046b0     0x1388 build/obj/wave_chart.o
 .ccm           0x20005a38      0xe20 build/obj/trigger_central.o
 .ccm           0x20006858      0xa18 build/obj/trigger_emulator_algo.o
                0x20006858                configuration

.bss            0x20007270    0x14c5c load address 0x0802bd8c
                0x20007270                . = ALIGN (0x4)
                0x20007270                PROVIDE (_bss_start, .)
 *(.bss)
 .bss           0x20007270      0x14c build/obj/trigger_decoder.o
 *fill*         0x200073bc        0x4 00
 .bss           0x200073c0     0x1158 build/obj/main_trigger_callback.o
 .bss           0x20008518      0x108 build/obj/rfi_perftest.o
                0x20008518                logger
                0x2000861c                rtcStartTime
 .bss           0x20008620      0x2c0 build/obj/engine_emulator.o
 .bss           0x200088e0      0x108 build/obj/trigger_emulator_algo.o
 .bss           0x200089e8      0x4fc build/obj/settings.o
 *fill*         0x20008ee4        0x4 00
 .bss           0x20008ee8     0x10f8 build/obj/engine_controller.o
                0x20009d08                halTime
 .bss           0x20009fe0       0x64 build/obj/efilib.o
 *fill*         0x2000a044        0x4 00
 .bss           0x2000a048     0x3a90 build/obj/engine_math.o
                0x2000a048                ignitionSignals
                0x2000bd90                injectonSignals
 .bss           0x2000dad8      0x2cc build/obj/rusefi.o
                0x2000dbdc                main_loop_started
                0x2000dbf4                errorMessageBuffer
                0x2000dcbc                hasFirmwareError
                0x2000dcd4                dbg_panic_file
                0x2000dcd8                dbg_panic_line
                0x2000dda4                . = ALIGN (0x4)
 *(.bss.*)
 .bss.dbg_isr_cnt
                0x2000dda4        0x4 build/obj/chdebug.o
                0x2000dda4                dbg_isr_cnt
 .bss.dbg_lock_cnt
                0x2000dda8        0x4 build/obj/chdebug.o
                0x2000dda8                dbg_lock_cnt
 .bss.dbg_panic_msg
                0x2000ddac        0x4 build/obj/chdebug.o
                0x2000ddac                dbg_panic_msg
 .bss.small_bounds_index
                0x2000ddb0      0xfa0 build/obj/histogram.o
 .bss.bounds    0x2000ed50     0x1bf8 build/obj/histogram.o
 .bss.initialized
                0x20010948        0x4 build/obj/histogram.o
 .bss.consoleActionCount
                0x2001094c        0x4 build/obj/eficonsole_logic.o
 .bss.confirmation
                0x20010950       0xc8 build/obj/eficonsole_logic.o
 .bss.logging   0x20010a18      0x104 build/obj/eficonsole_logic.o
 .bss.consoleActions
                0x20010b1c      0x480 build/obj/eficonsole_logic.o
 .bss.fatalErrorMessage
                0x20010f9c       0xc8 build/obj/eficonsole.o
 .bss.logger    0x20011064      0x104 build/obj/eficonsole.o
 .bss.consoleThreadStack
                0x20011168      0x438 build/obj/console_io.o
 .bss.console_line_callback
                0x200115a0        0x4 build/obj/console_io.o
                0x200115a0                console_line_callback
 *fill*         0x200115a4        0x4 00
 .bss.tsThreadStack
                0x200115a8      0x2b8 build/obj/status_loop.o
 .bss.LOGGING_BUFFER
                0x20011860      0x1f4 build/obj/status_loop.o
 *fill*         0x20011a54        0x4 00
 .bss.lcdThreadStack
                0x20011a58      0x2b8 build/obj/status_loop.o
 .bss.dateBuffer
                0x20011d10       0x20 build/obj/status_loop.o
 .bss.fileLogger
                0x20011d30      0x104 build/obj/status_loop.o
 .bss.buffer    0x20011e34        0xc build/obj/status_loop.o
 .bss.logger2   0x20011e40      0x104 build/obj/status_loop.o
 .bss.needToReportStatus
                0x20011f44        0x4 build/obj/status_loop.o
                0x20011f44                needToReportStatus
 .bss.logger    0x20011f48      0x104 build/obj/status_loop.o
 .bss.tsOutputChannels
                0x2001204c       0x30 build/obj/tunerstudio_algo.o
                0x2001204c                tsOutputChannels
 .bss.configWorkingCopy
                0x2001207c      0xd58 build/obj/tunerstudio_algo.o
                0x2001207c                configWorkingCopy
 .bss.tsState   0x20012dd4       0x14 build/obj/tunerstudio_algo.o
                0x20012dd4                tsState
 .bss.writeRequest
                0x20012de8        0x4 build/obj/tunerstudio.o
 .bss.writeCounter
                0x20012dec        0x4 build/obj/tunerstudio.o
 .bss.TS_WORKING_AREA
                0x20012df0      0x2b8 build/obj/tunerstudio.o
 .bss.tsCounter
                0x200130a8        0x4 build/obj/tunerstudio.o
 .bss.pageId    0x200130ac        0x2 build/obj/tunerstudio.o
 *fill*         0x200130ae        0x2 00
 .bss.previousWriteReport
                0x200130b0        0x4 build/obj/tunerstudio.o
                0x200130b0                previousWriteReport
 .bss.logger    0x200130b4      0x104 build/obj/tunerstudio.o
 .bss.outputBuffer
                0x200131b8     0x2328 build/obj/datalogging.o
 .bss.intermediateLoggingBufferInited
                0x200154e0        0x1 build/obj/datalogging.o
 *fill*         0x200154e1        0x3 00
 .bss.header    0x200154e4       0x10 build/obj/datalogging.o
 .bss.intermediateLoggingBuffer
                0x200154f4       0x14 build/obj/datalogging.o
 .bss.intermediateLoggingBufferData
                0x20015508      0x7d0 build/obj/datalogging.o
 .bss.LOGGING_BUFFER
                0x20015cd8     0x1388 build/obj/analog_chart.o
 .bss.pendingData
                0x20017060        0x4 build/obj/analog_chart.o
 .bss.initialized
                0x20017064        0x4 build/obj/analog_chart.o
 .bss.logging   0x20017068      0x104 build/obj/analog_chart.o
 *fill*         0x2001716c        0x4 00
 .bss.waThreadStack
                0x20017170      0x2b8 build/obj/wave_analyzer.o
 .bss.previousCrankSignalStart
                0x20017428        0x4 build/obj/wave_analyzer.o
 .bss.readers   0x2001742c      0x5f0 build/obj/wave_analyzer.o
 .bss.ckpPeriod
                0x20017a1c        0x4 build/obj/wave_analyzer.o
 .bss.waveReaderCount
                0x20017a20        0x4 build/obj/wave_analyzer.o
 .bss.logger    0x20017a24      0x104 build/obj/wave_analyzer.o
 .bss.txbuf     0x20017b28        0x4 build/obj/hardware.o
 .bss.samples_fast
                0x20017b2c        0x4 build/obj/adc_inputs.o
 .bss.LOGGING_BUFFER
                0x20017b30      0x1f4 build/obj/adc_inputs.o
 .bss.slowAdcState
                0x20017d24       0x18 build/obj/adc_inputs.o
 .bss.fastAdcValue
                0x20017d3c        0x4 build/obj/adc_inputs.o
 .bss.hardwareIndexByIndernalAdcIndex
                0x20017d40       0x50 build/obj/adc_inputs.o
 .bss.adcCallbackCounter_slow
                0x20017d90        0x4 build/obj/adc_inputs.o
 .bss.newState  0x20017d94       0x1c build/obj/adc_inputs.o
 .bss.internalAdcIndexByHardwareIndex
                0x20017db0       0x50 build/obj/adc_inputs.o
 .bss.adcDebugReporting
                0x20017e00        0x4 build/obj/adc_inputs.o
 .bss.logger    0x20017e04      0x104 build/obj/adc_inputs.o
 .bss.secondaryCrankInput
                0x20017f08      0x10c build/obj/trigger_input.o
 .bss.primaryCrankInput
                0x20018014      0x10c build/obj/trigger_input.o
 .bss.portNameStream
                0x20018120       0x14 build/obj/pin_repository.o
 .bss.logger    0x20018134      0x104 build/obj/pin_repository.o
 .bss.portNameBuffer
                0x20018238       0x14 build/obj/pin_repository.o
 .bss.initialized
                0x2001824c        0x4 build/obj/pin_repository.o
 .bss.totalPinsUsed
                0x20018250        0x4 build/obj/pin_repository.o
 .bss.PIN_USED  0x20018254      0x1c0 build/obj/pin_repository.o
                0x20018254                PIN_USED
 .bss.DEFAULT_OUTPUT
                0x20018414        0x4 build/obj/io_pins.o
 .bss.errBlinkingStack
                0x20018418      0x2b8 build/obj/io_pins.o
 .bss.outputs   0x200186d0      0x4b0 build/obj/io_pins.o
 .bss.comBlinkingStack
                0x20018b80      0x2b8 build/obj/io_pins.o
 .bss.pinDefaultState
                0x20018e38      0x190 build/obj/io_pins.o
 .bss.BUSY_WAIT_DELAY
                0x20018fc8        0x4 build/obj/lcd_HD44780.o
 .bss.txbuf     0x20018fcc        0x4 build/obj/lcd_HD44780.o
 .bss.logger    0x20018fd0      0x104 build/obj/lcd_HD44780.o
 .bss.currentRow
                0x200190d4        0x4 build/obj/lcd_HD44780.o
 .bss.SDU1      0x200190d8      0x258 build/obj/usbcfg.o
                0x200190d8                SDU1
 .bss.ep1instate
                0x20019330       0x10 build/obj/usbcfg.o
 .bss.ep2instate
                0x20019340       0x10 build/obj/usbcfg.o
 .bss.ep1outstate
                0x20019350       0x10 build/obj/usbcfg.o
 .bss.unix_time.9103
                0x20019360        0x4 build/obj/rtc_helper.o
 .bss.buff.9098
                0x20019364        0x4 build/obj/rtc_helper.o
 .bss.logger    0x20019368      0x104 build/obj/rtc_helper.o
 .bss.FDLogFile
                0x2001946c      0x224 build/obj/mmc_card.o
 .bss.totalLoggedBytes
                0x20019690        0x4 build/obj/mmc_card.o
 .bss.errorReported
                0x20019694        0x4 build/obj/mmc_card.o
 .bss.MMCD1     0x20019698       0x34 build/obj/mmc_card.o
                0x20019698                MMCD1
 .bss.fs_ready  0x200196cc        0x1 build/obj/mmc_card.o
 *fill*         0x200196cd        0x3 00
 .bss.tp_MMC_Monitor
                0x200196d0      0x2b8 build/obj/mmc_card.o
 .bss.MMC_FS    0x20019988      0x230 build/obj/mmc_card.o
 .bss.logger    0x20019bb8      0x104 build/obj/mmc_card.o
 .bss.GPSdata   0x20019cbc       0x48 build/obj/neo6m.o
 *fill*         0x20019d04        0x4 00
 .bss.GPS_WORKING_AREA
                0x20019d08      0x2b8 build/obj/neo6m.o
 .bss.logging   0x20019fc0      0x104 build/obj/neo6m.o
 .bss.gpsMesagesCount
                0x2001a0c4        0x4 build/obj/neo6m.o
 .bss.curTm     0x2001a0c8       0x24 build/obj/neo6m.o
 .bss.gps_str   0x2001a0ec      0x100 build/obj/neo6m.o
 .bss.registeredIcuCount
                0x2001a1ec        0x4 build/obj/wave_analyzer_hw.o
 .bss.registeredIcus
                0x2001a1f0       0x20 build/obj/wave_analyzer_hw.o
 .bss.logger    0x2001a210      0x104 build/obj/pwm_generator.o
 .bss.onTime    0x2001a314        0x4 build/obj/injector_central.o
                0x2001a314                onTime
 .bss.brainPin  0x2001a318        0x4 build/obj/injector_central.o
                0x2001a318                brainPin
 .bss.count     0x2001a31c        0x4 build/obj/injector_central.o
                0x2001a31c                count
 .bss.is_injector_enabled
                0x2001a320       0x30 build/obj/injector_central.o
 .bss.pin       0x2001a350        0x1 build/obj/injector_central.o
                0x2001a350                pin
 *fill*         0x2001a351        0x3 00
 .bss.offTime   0x2001a354        0x4 build/obj/injector_central.o
                0x2001a354                offTime
 .bss.benchThreadStack
                0x2001a358      0x2b8 build/obj/injector_central.o
 .bss.logger    0x2001a610      0x104 build/obj/injector_central.o
 .bss.needToRunBench
                0x2001a714        0x4 build/obj/injector_central.o
 .bss.logger    0x2001a718      0x104 build/obj/ignition_central.o
 .bss.logger    0x2001a81c      0x104 build/obj/flash_main.o
 .bss.mfiThreadStack
                0x2001a920      0x2b8 build/obj/malfunction_indicator.o
 .bss.logger    0x2001abd8      0x104 build/obj/error_handling.o
 .bss.currentMaxPressure
                0x2001acdc        0x4 build/obj/map_averaging.o
 .bss.mapMeasurementsCounter
                0x2001ace0        0x4 build/obj/map_averaging.o
 *fill*         0x2001ace4        0x4 00
 .bss.startTimer
                0x2001ace8       0x28 build/obj/map_averaging.o
 .bss.perRevolutionCounter
                0x2001ad10        0x4 build/obj/map_averaging.o
 .bss.perRevolution
                0x2001ad14        0x4 build/obj/map_averaging.o
 .bss.endTimer  0x2001ad18       0x28 build/obj/map_averaging.o
 .bss.v_averagedMapValue
                0x2001ad40        0x4 build/obj/map_averaging.o
 .bss.logger    0x2001ad44      0x104 build/obj/map_averaging.o
 .bss.atmosphericPressure
                0x2001ae48        0x4 build/obj/map_averaging.o
 .bss.v_mapAccumulator
                0x2001ae4c        0x4 build/obj/map_averaging.o
 .bss.fuel_ptrs
                0x2001ae50       0x40 build/obj/fuel_math.o
 .bss.initialized
                0x2001ae90        0x4 build/obj/fuel_math.o
 .bss.timing_ptrs
                0x2001ae94       0x40 build/obj/advance_map.o
 .bss.initialized
                0x2001aed4        0x4 build/obj/advance_map.o
 .bss.globalConfigurationVersion
                0x2001aed8        0x4 build/obj/engine_configuration.o
 .bss.logger    0x2001aedc      0x104 build/obj/signal_executor.o
 .bss.error_codes_set
                0x2001afe0       0x2c build/obj/malfunction_central.o
 .bss.logger    0x2001b00c      0x104 build/obj/wave_chart.o
 .bss.waveChart
                0x2001b110      0x10c build/obj/algo.o
                0x2001b110                waveChart
 .bss.states    0x2001b21c       0x28 build/obj/tps.o
 .bss.tpsRocIndex
                0x2001b244        0x4 build/obj/tps.o
 .bss.initialized
                0x2001b248        0x1 build/obj/thermistors.o
 *fill*         0x2001b249        0x3 00
 .bss.dma_isr_redir
                0x2001b24c       0x80 build/obj/stm32_dma.o
 .bss.dma_streams_mask
                0x2001b2cc        0x4 build/obj/stm32_dma.o
 .bss.ADCD1     0x2001b2d0       0x34 build/obj/adc_lld.o
                0x2001b2d0                ADCD1
 .bss.ADCD2     0x2001b304       0x34 build/obj/adc_lld.o
                0x2001b304                ADCD2
 .bss.CAND1     0x2001b338       0x38 build/obj/can_lld.o
                0x2001b338                CAND1
 .bss.CAND2     0x2001b370       0x38 build/obj/can_lld.o
                0x2001b370                CAND2
 .bss.I2CD1     0x2001b3a8       0x38 build/obj/i2c_lld.o
                0x2001b3a8                I2CD1
 .bss.USBD1     0x2001b3e0      0x5a0 build/obj/usb_lld.o
                0x2001b3e0                USBD1
 .bss.ep0_state
                0x2001b980       0x10 build/obj/usb_lld.o
 .bss.ep0setup_buffer
                0x2001b990        0x8 build/obj/usb_lld.o
 .bss.RTCD1     0x2001b998        0x4 build/obj/rtc_lld.o
                0x2001b998                RTCD1
 .bss.dummytx   0x2001b99c        0x2 build/obj/spi_lld.o
 *fill*         0x2001b99e        0x2 00
 .bss.SPID3     0x2001b9a0       0x30 build/obj/spi_lld.o
                0x2001b9a0                SPID3
 .bss.dummyrx   0x2001b9d0        0x2 build/obj/spi_lld.o
 *fill*         0x2001b9d2        0x2 00
 .bss.ICUD2     0x2001b9d4       0x18 build/obj/icu_lld.o
                0x2001b9d4                ICUD2
 .bss.ICUD3     0x2001b9ec       0x18 build/obj/icu_lld.o
                0x2001b9ec                ICUD3
 .bss.ICUD9     0x2001ba04       0x18 build/obj/icu_lld.o
                0x2001ba04                ICUD9
 .bss.ICUD1     0x2001ba1c       0x18 build/obj/icu_lld.o
                0x2001ba1c                ICUD1
 .bss.PWMD4     0x2001ba34       0x14 build/obj/pwm_lld.o
                0x2001ba34                PWMD4
 .bss.PWMD8     0x2001ba48       0x14 build/obj/pwm_lld.o
                0x2001ba48                PWMD8
 .bss.SD1       0x2001ba5c       0x78 build/obj/serial_lld.o
                0x2001ba5c                SD1
 .bss.SD2       0x2001bad4       0x78 build/obj/serial_lld.o
                0x2001bad4                SD2
 .bss.SD3       0x2001bb4c       0x78 build/obj/serial_lld.o
                0x2001bb4c                SD3
 .bss.Fsid      0x2001bbc4        0x2 build/obj/ff.o
 *fill*         0x2001bbc6        0x2 00
 .bss.FatFs     0x2001bbc8        0x4 build/obj/ff.o
 .bss.triggerState
                0x2001bbcc       0x10 build/obj/trigger_central.o
 .bss.shaftEventCounter
                0x2001bbdc        0x4 build/obj/trigger_central.o
 .bss.triggerListeneres
                0x2001bbe0       0x7c build/obj/trigger_central.o
 .bss.logging   0x2001bc5c      0x104 build/obj/trigger_central.o
 .bss.hwEventCounters
                0x2001bd60       0x10 build/obj/trigger_central.o
 .bss.shaft_signal_msg_index
                0x2001bd70       0x10 build/obj/rpm_calculator.o
 .bss.tdcScheduler
                0x2001bd80       0x28 build/obj/rpm_calculator.o
 .bss.rpmBuffer
                0x2001bda8        0xc build/obj/rpm_calculator.o
 .bss.rpmState  0x2001bdb4        0xc build/obj/rpm_calculator.o
 .bss.logger    0x2001bdc0      0x104 build/obj/rpm_calculator.o
 .bss.globalCounter
                0x2001bec4        0x4 build/obj/signal_temp.o
                0x2001bec4                globalCounter
 .bss._daylight
                0x2001bec8        0x4 c:/chibistudio/tools/gnu tools arm embedded/4.7 2013q2/bin/../lib/gcc/arm-none-eabi/4.7.4/../../../../arm-none-eabi/lib/armv7e-m\libc.a(lib_a-tzvars.o)
                0x2001bec8                _daylight
                0x2001becc                . = ALIGN (0x4)
 *(COMMON)
                0x2001becc                . = ALIGN (0x4)
                0x2001becc                PROVIDE (_bss_end, .)
                0x2001becc                PROVIDE (end, .)
                0x2001becc                _end = .
                0x2001becc                __heap_base__ = _end
                0x2001c000                __heap_end__ = __ram_end__
OUTPUT(build/rusefi.elf elf32-littlearm)

.debug_info     0x00000000    0x6ea27
 .debug_info    0x00000000      0x2b2 build/obj/crt0.o
 .debug_info    0x000002b2      0x1f0 build/obj/vectors.o
 .debug_info    0x000004a2       0x9a build/obj/chcore.o
 .debug_info    0x0000053c      0xbcc build/obj/chcore_v7m.o
 .debug_info    0x00001108      0x455 build/obj/nvic.o
 .debug_info    0x0000155d      0xa24 build/obj/chsys.o
 .debug_info    0x00001f81      0x3c8 build/obj/chdebug.o
 .debug_info    0x00002349      0x2d8 build/obj/chvt.o
 .debug_info    0x00002621      0xc2f build/obj/chschd.o
 .debug_info    0x00003250      0xf4f build/obj/chthreads.o
 .debug_info    0x0000419f      0xb02 build/obj/chdynamic.o
 .debug_info    0x00004ca1      0x80f build/obj/chregistry.o
 .debug_info    0x000054b0      0xf8e build/obj/chsem.o
 .debug_info    0x0000643e      0xd1a build/obj/chmtx.o
 .debug_info    0x00007158     0x1220 build/obj/chevents.o
 .debug_info    0x00008378      0xef4 build/obj/chqueues.o
 .debug_info    0x0000926c      0x23f build/obj/chmemcore.o
 .debug_info    0x000094ab      0x8cb build/obj/chheap.o
 .debug_info    0x00009d76      0x4ea build/obj/chmempools.o
 .debug_info    0x0000a260      0x628 build/obj/chprintf.o
 .debug_info    0x0000a888      0x3d7 build/obj/memstreams.o
 .debug_info    0x0000ac5f      0x830 build/obj/chrtclib.o
 .debug_info    0x0000b48f      0x3f7 build/obj/listener_array.o
 .debug_info    0x0000b886       0xc4 build/obj/crc.o
 .debug_info    0x0000b94a      0x550 build/obj/histogram.o
 .debug_info    0x0000be9a      0xeaa build/obj/eficonsole_logic.o
 .debug_info    0x0000cd44      0xf44 build/obj/dodge_neon.o
 .debug_info    0x0000dc88      0xa10 build/obj/ford_fiesta.o
 .debug_info    0x0000e698      0xfd3 build/obj/ford_1995_inline_6.o
 .debug_info    0x0000f66b      0xa10 build/obj/nissan_primera.o
 .debug_info    0x0001007b      0xf59 build/obj/mazda_miata_nb.o
 .debug_info    0x00010fd4      0xa10 build/obj/honda_accord.o
 .debug_info    0x000119e4      0xa1d build/obj/GY6_139QMB.o
 .debug_info    0x00012401      0xa10 build/obj/mazda_323.o
 .debug_info    0x00012e11     0x1e02 build/obj/eficonsole.o
 .debug_info    0x00014c13     0x1ab7 build/obj/console_io.o
 .debug_info    0x000166ca     0x293d build/obj/status_loop.o
 .debug_info    0x00019007     0x11aa build/obj/tunerstudio_algo.o
 .debug_info    0x0001a1b1     0x26bc build/obj/tunerstudio.o
 .debug_info    0x0001c86d     0x1407 build/obj/datalogging.o
 .debug_info    0x0001dc74      0x861 build/obj/rfiutil.o
 .debug_info    0x0001e4d5      0x45f build/obj/hal.o
 .debug_info    0x0001e934     0x123c build/obj/adc.o
 .debug_info    0x0001fb70     0x14d7 build/obj/can.o
 .debug_info    0x00021047      0xfbf build/obj/i2c.o
 .debug_info    0x00022006      0x7ee build/obj/icu.o
 .debug_info    0x000227f4     0x2537 build/obj/mmc_spi.o
 .debug_info    0x00024d2b      0x267 build/obj/mmcsd.o
 .debug_info    0x00024f92      0x8fb build/obj/pwm.o
 .debug_info    0x0002588d      0x89b build/obj/rtc.o
 .debug_info    0x00026128     0x131b build/obj/serial.o
 .debug_info    0x00027443     0x230e build/obj/serial_usb.o
 .debug_info    0x00029751     0x1861 build/obj/spi.o
 .debug_info    0x0002afb2     0x2357 build/obj/usb.o
 .debug_info    0x0002d309      0xcf5 build/obj/analog_chart.o
 .debug_info    0x0002dffe     0x1994 build/obj/wave_analyzer.o
 .debug_info    0x0002f992     0x12af build/obj/hardware.o
 .debug_info    0x00030c41     0x30b4 build/obj/adc_inputs.o
 .debug_info    0x00033cf5     0x11ee build/obj/trigger_input.o
 .debug_info    0x00034ee3      0xe50 build/obj/pin_repository.o
 .debug_info    0x00035d33     0x1a25 build/obj/io_pins.o
 .debug_info    0x00037758     0x242b build/obj/lcd_HD44780.o
 .debug_info    0x00039b83     0x1864 build/obj/usbcfg.o
 .debug_info    0x0003b3e7     0x1a7a build/obj/usbconsole.o
 .debug_info    0x0003ce61      0x6ed build/obj/flash.o
 .debug_info    0x0003d54e      0xa5f build/obj/rtc_helper.o
 .debug_info    0x0003dfad     0x1ba6 build/obj/mmc_card.o
 .debug_info    0x0003fb53     0x13af build/obj/neo6m.o
 .debug_info    0x00040f02      0x3dc build/obj/gpio_helper.o
 .debug_info    0x000412de      0x85d build/obj/board_test.o
 .debug_info    0x00041b3b      0x999 build/obj/wave_analyzer_hw.o
 .debug_info    0x000424d4      0xca7 build/obj/pwm_generator.o
 .debug_info    0x0004317b     0x24c7 build/obj/injector_central.o
 .debug_info    0x00045642      0x8d1 build/obj/ignition_central.o
 .debug_info    0x00045f13     0x1c2a build/obj/flash_main.o
 .debug_info    0x00047b3d      0xc46 build/obj/malfunction_indicator.o
 .debug_info    0x00048783      0x4a0 build/obj/error_handling.o
 .debug_info    0x00048c23     0x1260 build/obj/map_averaging.o
 .debug_info    0x00049e83     0x108f build/obj/fuel_math.o
 .debug_info    0x0004af12      0xbd8 build/obj/advance_map.o
 .debug_info    0x0004baea     0x1e4f build/obj/engine_configuration.o
 .debug_info    0x0004d939      0x872 build/obj/signal_executor.o
 .debug_info    0x0004e1ab      0x6a2 build/obj/interpolation.o
 .debug_info    0x0004e84d      0x2ff build/obj/malfunction_central.o
 .debug_info    0x0004eb4c      0x655 build/obj/event_registry.o
 .debug_info    0x0004f1a1      0x4bf build/obj/idle_controller.o
 .debug_info    0x0004f660      0x822 build/obj/wave_chart.o
 .debug_info    0x0004fe82      0xc6b build/obj/nmea.o
 .debug_info    0x00050aed      0x249 build/obj/algo.o
 .debug_info    0x00050d36      0xced build/obj/tps.o
 .debug_info    0x00051a23       0xe6 build/obj/allsensors.o
 .debug_info    0x00051b09      0xa32 build/obj/maf.o
 .debug_info    0x0005253b      0xb96 build/obj/map.o
 .debug_info    0x000530d1      0xa8f build/obj/ego.o
 .debug_info    0x00053b60      0xa60 build/obj/voltage.o
 .debug_info    0x000545c0     0x1829 build/obj/thermistors.o
 .debug_info    0x00055de9      0xd0e build/obj/stm32_dma.o
 .debug_info    0x00056af7      0x504 build/obj/hal_lld.o
 .debug_info    0x00056ffb     0x14d8 build/obj/adc_lld.o
 .debug_info    0x000584d3     0x1d5a build/obj/can_lld.o
 .debug_info    0x0005a22d      0x6e1 build/obj/pal_lld.o
 .debug_info    0x0005a90e     0x1b35 build/obj/i2c_lld.o
 .debug_info    0x0005c443     0x2bd6 build/obj/usb_lld.o
 .debug_info    0x0005f019      0x720 build/obj/rtc_lld.o
 .debug_info    0x0005f739     0x106b build/obj/spi_lld.o
 .debug_info    0x000607a4      0xd39 build/obj/icu_lld.o
 .debug_info    0x000614dd      0xc5b build/obj/pwm_lld.o
 .debug_info    0x00062138     0x153f build/obj/serial_lld.o
 .debug_info    0x00063677      0xda0 build/obj/board.o
 .debug_info    0x00064417     0x129e build/obj/fatfs_diskio.o
 .debug_info    0x000656b5      0x685 build/obj/fatfs_syscall.o
 .debug_info    0x00065d3a     0x2592 build/obj/ff.o
 .debug_info    0x000682cc      0x18a build/obj/ccsbcs.o
 .debug_info    0x00068456     0x1914 build/obj/trigger_central.o
 .debug_info    0x00069d6a     0x14e1 build/obj/trigger_mazda.o
 .debug_info    0x0006b24b      0x484 build/obj/trigger_structure.o
 .debug_info    0x0006b6cf     0x13d6 build/obj/rpm_calculator.o
 .debug_info    0x0006caa5      0xf1c build/obj/pwm_generator_logic.o
 .debug_info    0x0006d9c1      0xa85 build/obj/signal_temp.o
 .debug_info    0x0006e446      0x5e1 build/obj/signal_executor_sleep.o

.debug_abbrev   0x00000000    0x10173
 .debug_abbrev  0x00000000       0xf1 build/obj/crt0.o
 .debug_abbrev  0x000000f1       0xb1 build/obj/vectors.o
 .debug_abbrev  0x000001a2       0x44 build/obj/chcore.o
 .debug_abbrev  0x000001e6      0x1f3 build/obj/chcore_v7m.o
 .debug_abbrev  0x000003d9       0xf2 build/obj/nvic.o
 .debug_abbrev  0x000004cb      0x217 build/obj/chsys.o
 .debug_abbrev  0x000006e2       0xf9 build/obj/chdebug.o
 .debug_abbrev  0x000007db      0x166 build/obj/chvt.o
 .debug_abbrev  0x00000941      0x2b9 build/obj/chschd.o
 .debug_abbrev  0x00000bfa      0x2bc build/obj/chthreads.o
 .debug_abbrev  0x00000eb6      0x213 build/obj/chdynamic.o
 .debug_abbrev  0x000010c9      0x1bc build/obj/chregistry.o
 .debug_abbrev  0x00001285      0x2cf build/obj/chsem.o
 .debug_abbrev  0x00001554      0x2a2 build/obj/chmtx.o
 .debug_abbrev  0x000017f6      0x297 build/obj/chevents.o
 .debug_abbrev  0x00001a8d      0x34e build/obj/chqueues.o
 .debug_abbrev  0x00001ddb      0x125 build/obj/chmemcore.o
 .debug_abbrev  0x00001f00      0x1f6 build/obj/chheap.o
 .debug_abbrev  0x000020f6      0x179 build/obj/chmempools.o
 .debug_abbrev  0x0000226f      0x1c7 build/obj/chprintf.o
 .debug_abbrev  0x00002436      0x164 build/obj/memstreams.o
 .debug_abbrev  0x0000259a      0x1c1 build/obj/chrtclib.o
 .debug_abbrev  0x0000275b      0x150 build/obj/listener_array.o
 .debug_abbrev  0x000028ab       0x99 build/obj/crc.o
 .debug_abbrev  0x00002944      0x201 build/obj/histogram.o
 .debug_abbrev  0x00002b45      0x2f8 build/obj/eficonsole_logic.o
 .debug_abbrev  0x00002e3d      0x15b build/obj/dodge_neon.o
 .debug_abbrev  0x00002f98       0xfd build/obj/ford_fiesta.o
 .debug_abbrev  0x00003095      0x170 build/obj/ford_1995_inline_6.o
 .debug_abbrev  0x00003205       0xfd build/obj/nissan_primera.o
 .debug_abbrev  0x00003302      0x15b build/obj/mazda_miata_nb.o
 .debug_abbrev  0x0000345d       0xfd build/obj/honda_accord.o
 .debug_abbrev  0x0000355a       0xfd build/obj/GY6_139QMB.o
 .debug_abbrev  0x00003657       0xfd build/obj/mazda_323.o
 .debug_abbrev  0x00003754      0x2e9 build/obj/eficonsole.o
 .debug_abbrev  0x00003a3d      0x326 build/obj/console_io.o
 .debug_abbrev  0x00003d63      0x458 build/obj/status_loop.o
 .debug_abbrev  0x000041bb      0x1a7 build/obj/tunerstudio_algo.o
 .debug_abbrev  0x00004362      0x399 build/obj/tunerstudio.o
 .debug_abbrev  0x000046fb      0x3b9 build/obj/datalogging.o
 .debug_abbrev  0x00004ab4      0x29e build/obj/rfiutil.o
 .debug_abbrev  0x00004d52      0x185 build/obj/hal.o
 .debug_abbrev  0x00004ed7      0x28c build/obj/adc.o
 .debug_abbrev  0x00005163      0x2ad build/obj/can.o
 .debug_abbrev  0x00005410      0x281 build/obj/i2c.o
 .debug_abbrev  0x00005691      0x1c9 build/obj/icu.o
 .debug_abbrev  0x0000585a      0x3f0 build/obj/mmc_spi.o
 .debug_abbrev  0x00005c4a      0x11a build/obj/mmcsd.o
 .debug_abbrev  0x00005d64      0x1c9 build/obj/pwm.o
 .debug_abbrev  0x00005f2d      0x192 build/obj/rtc.o
 .debug_abbrev  0x000060bf      0x296 build/obj/serial.o
 .debug_abbrev  0x00006355      0x39e build/obj/serial_usb.o
 .debug_abbrev  0x000066f3      0x26f build/obj/spi.o
 .debug_abbrev  0x00006962      0x392 build/obj/usb.o
 .debug_abbrev  0x00006cf4      0x1ce build/obj/analog_chart.o
 .debug_abbrev  0x00006ec2      0x2fc build/obj/wave_analyzer.o
 .debug_abbrev  0x000071be      0x276 build/obj/hardware.o
 .debug_abbrev  0x00007434      0x40e build/obj/adc_inputs.o
 .debug_abbrev  0x00007842      0x230 build/obj/trigger_input.o
 .debug_abbrev  0x00007a72      0x2ed build/obj/pin_repository.o
 .debug_abbrev  0x00007d5f      0x326 build/obj/io_pins.o
 .debug_abbrev  0x00008085      0x288 build/obj/lcd_HD44780.o
 .debug_abbrev  0x0000830d      0x27b build/obj/usbcfg.o
 .debug_abbrev  0x00008588      0x26c build/obj/usbconsole.o
 .debug_abbrev  0x000087f4      0x197 build/obj/flash.o
 .debug_abbrev  0x0000898b      0x1e4 build/obj/rtc_helper.o
 .debug_abbrev  0x00008b6f      0x34d build/obj/mmc_card.o
 .debug_abbrev  0x00008ebc      0x33d build/obj/neo6m.o
 .debug_abbrev  0x000091f9      0x131 build/obj/gpio_helper.o
 .debug_abbrev  0x0000932a      0x168 build/obj/board_test.o
 .debug_abbrev  0x00009492      0x257 build/obj/wave_analyzer_hw.o
 .debug_abbrev  0x000096e9      0x209 build/obj/pwm_generator.o
 .debug_abbrev  0x000098f2      0x330 build/obj/injector_central.o
 .debug_abbrev  0x00009c22      0x13f build/obj/ignition_central.o
 .debug_abbrev  0x00009d61      0x2e7 build/obj/flash_main.o
 .debug_abbrev  0x0000a048      0x2e5 build/obj/malfunction_indicator.o
 .debug_abbrev  0x0000a32d      0x1d1 build/obj/error_handling.o
 .debug_abbrev  0x0000a4fe      0x268 build/obj/map_averaging.o
 .debug_abbrev  0x0000a766      0x24d build/obj/fuel_math.o
 .debug_abbrev  0x0000a9b3      0x1e7 build/obj/advance_map.o
 .debug_abbrev  0x0000ab9a      0x2b4 build/obj/engine_configuration.o
 .debug_abbrev  0x0000ae4e      0x212 build/obj/signal_executor.o
 .debug_abbrev  0x0000b060      0x1b9 build/obj/interpolation.o
 .debug_abbrev  0x0000b219      0x181 build/obj/malfunction_central.o
 .debug_abbrev  0x0000b39a      0x1b1 build/obj/event_registry.o
 .debug_abbrev  0x0000b54b      0x1bd build/obj/idle_controller.o
 .debug_abbrev  0x0000b708      0x1d3 build/obj/wave_chart.o
 .debug_abbrev  0x0000b8db      0x241 build/obj/nmea.o
 .debug_abbrev  0x0000bb1c      0x102 build/obj/algo.o
 .debug_abbrev  0x0000bc1e      0x267 build/obj/tps.o
 .debug_abbrev  0x0000be85       0x87 build/obj/allsensors.o
 .debug_abbrev  0x0000bf0c      0x126 build/obj/maf.o
 .debug_abbrev  0x0000c032      0x1a9 build/obj/map.o
 .debug_abbrev  0x0000c1db      0x16e build/obj/ego.o
 .debug_abbrev  0x0000c349      0x13d build/obj/voltage.o
 .debug_abbrev  0x0000c486      0x300 build/obj/thermistors.o
 .debug_abbrev  0x0000c786      0x25e build/obj/stm32_dma.o
 .debug_abbrev  0x0000c9e4      0x12a build/obj/hal_lld.o
 .debug_abbrev  0x0000cb0e      0x306 build/obj/adc_lld.o
 .debug_abbrev  0x0000ce14      0x351 build/obj/can_lld.o
 .debug_abbrev  0x0000d165      0x198 build/obj/pal_lld.o
 .debug_abbrev  0x0000d2fd      0x409 build/obj/i2c_lld.o
 .debug_abbrev  0x0000d706      0x52b build/obj/usb_lld.o
 .debug_abbrev  0x0000dc31      0x21e build/obj/rtc_lld.o
 .debug_abbrev  0x0000de4f      0x321 build/obj/spi_lld.o
 .debug_abbrev  0x0000e170      0x258 build/obj/icu_lld.o
 .debug_abbrev  0x0000e3c8      0x26e build/obj/pwm_lld.o
 .debug_abbrev  0x0000e636      0x340 build/obj/serial_lld.o
 .debug_abbrev  0x0000e976      0x1dd build/obj/board.o
 .debug_abbrev  0x0000eb53      0x21c build/obj/fatfs_diskio.o
 .debug_abbrev  0x0000ed6f      0x179 build/obj/fatfs_syscall.o
 .debug_abbrev  0x0000eee8      0x34a build/obj/ff.o
 .debug_abbrev  0x0000f232       0xaa build/obj/ccsbcs.o
 .debug_abbrev  0x0000f2dc      0x25b build/obj/trigger_central.o
 .debug_abbrev  0x0000f537      0x1d2 build/obj/trigger_mazda.o
 .debug_abbrev  0x0000f709      0x18c build/obj/trigger_structure.o
 .debug_abbrev  0x0000f895      0x2b3 build/obj/rpm_calculator.o
 .debug_abbrev  0x0000fb48      0x2c6 build/obj/pwm_generator_logic.o
 .debug_abbrev  0x0000fe0e      0x1e0 build/obj/signal_temp.o
 .debug_abbrev  0x0000ffee      0x185 build/obj/signal_executor_sleep.o

.debug_loc      0x00000000    0x1f127
 .debug_loc     0x00000000       0x20 build/obj/crt0.o
 .debug_loc     0x00000020      0x135 build/obj/chcore_v7m.o
 .debug_loc     0x00000155      0x1a7 build/obj/nvic.o
 .debug_loc     0x000002fc       0xc4 build/obj/chsys.o
 .debug_loc     0x000003c0      0x1ed build/obj/chdebug.o
 .debug_loc     0x000005ad       0xe2 build/obj/chvt.o
 .debug_loc     0x0000068f      0x350 build/obj/chschd.o
 .debug_loc     0x000009df      0x592 build/obj/chthreads.o
 .debug_loc     0x00000f71      0x390 build/obj/chdynamic.o
 .debug_loc     0x00001301       0xaa build/obj/chregistry.o
 .debug_loc     0x000013ab      0x6ea build/obj/chsem.o
 .debug_loc     0x00001a95      0x4ce build/obj/chmtx.o
 .debug_loc     0x00001f63      0x96d build/obj/chevents.o
 .debug_loc     0x000028d0      0x782 build/obj/chqueues.o
 .debug_loc     0x00003052      0x107 build/obj/chmemcore.o
 .debug_loc     0x00003159      0x2ff build/obj/chheap.o
 .debug_loc     0x00003458      0x362 build/obj/chmempools.o
 .debug_loc     0x000037ba      0xac2 build/obj/chprintf.o
 .debug_loc     0x0000427c      0x25b build/obj/memstreams.o
 .debug_loc     0x000044d7      0x3a1 build/obj/chrtclib.o
 .debug_loc     0x00004878      0x2eb build/obj/listener_array.o
 .debug_loc     0x00004b63      0x1b6 build/obj/crc.o
 .debug_loc     0x00004d19      0x583 build/obj/histogram.o
 .debug_loc     0x0000529c      0xb66 build/obj/eficonsole_logic.o
 .debug_loc     0x00005e02       0x68 build/obj/dodge_neon.o
 .debug_loc     0x00005e6a       0x75 build/obj/ford_1995_inline_6.o
 .debug_loc     0x00005edf       0x68 build/obj/mazda_miata_nb.o
 .debug_loc     0x00005f47      0x1ed build/obj/eficonsole.o
 .debug_loc     0x00006134      0x278 build/obj/console_io.o
 .debug_loc     0x000063ac      0x506 build/obj/status_loop.o
 .debug_loc     0x000068b2      0x150 build/obj/tunerstudio_algo.o
 .debug_loc     0x00006a02      0x303 build/obj/tunerstudio.o
 .debug_loc     0x00006d05      0xb7b build/obj/datalogging.o
 .debug_loc     0x00007880      0x52c build/obj/rfiutil.o
 .debug_loc     0x00007dac       0xcd build/obj/hal.o
 .debug_loc     0x00007e79      0x4cb build/obj/adc.o
 .debug_loc     0x00008344      0x400 build/obj/can.o
 .debug_loc     0x00008744      0x3e7 build/obj/i2c.o
 .debug_loc     0x00008b2b      0x1ce build/obj/icu.o
 .debug_loc     0x00008cf9      0xd23 build/obj/mmc_spi.o
 .debug_loc     0x00009a1c      0x214 build/obj/mmcsd.o
 .debug_loc     0x00009c30      0x2b6 build/obj/pwm.o
 .debug_loc     0x00009ee6      0x2a2 build/obj/rtc.o
 .debug_loc     0x0000a188      0x693 build/obj/serial.o
 .debug_loc     0x0000a81b      0x9a1 build/obj/serial_usb.o
 .debug_loc     0x0000b1bc      0x79b build/obj/spi.o
 .debug_loc     0x0000b957      0xb73 build/obj/usb.o
 .debug_loc     0x0000c4ca       0x98 build/obj/analog_chart.o
 .debug_loc     0x0000c562      0x638 build/obj/wave_analyzer.o
 .debug_loc     0x0000cb9a       0xd4 build/obj/hardware.o
 .debug_loc     0x0000cc6e     0x1194 build/obj/adc_inputs.o
 .debug_loc     0x0000de02       0xfa build/obj/trigger_input.o
 .debug_loc     0x0000defc      0x520 build/obj/pin_repository.o
 .debug_loc     0x0000e41c      0x64c build/obj/io_pins.o
 .debug_loc     0x0000ea68      0x31c build/obj/lcd_HD44780.o
 .debug_loc     0x0000ed84      0x10a build/obj/usbcfg.o
 .debug_loc     0x0000ee8e       0x40 build/obj/usbconsole.o
 .debug_loc     0x0000eece      0x74d build/obj/flash.o
 .debug_loc     0x0000f61b      0x1a0 build/obj/rtc_helper.o
 .debug_loc     0x0000f7bb      0x290 build/obj/mmc_card.o
 .debug_loc     0x0000fa4b      0x148 build/obj/neo6m.o
 .debug_loc     0x0000fb93      0x213 build/obj/gpio_helper.o
 .debug_loc     0x0000fda6      0x336 build/obj/wave_analyzer_hw.o
 .debug_loc     0x000100dc      0x1e4 build/obj/pwm_generator.o
 .debug_loc     0x000102c0      0x3de build/obj/injector_central.o
 .debug_loc     0x0001069e       0x20 build/obj/ignition_central.o
 .debug_loc     0x000106be      0x19a build/obj/flash_main.o
 .debug_loc     0x00010858      0x211 build/obj/malfunction_indicator.o
 .debug_loc     0x00010a69       0x97 build/obj/error_handling.o
 .debug_loc     0x00010b00      0x2ae build/obj/map_averaging.o
 .debug_loc     0x00010dae      0x42e build/obj/fuel_math.o
 .debug_loc     0x000111dc      0x1b8 build/obj/advance_map.o
 .debug_loc     0x00011394     0x1116 build/obj/engine_configuration.o
 .debug_loc     0x000124aa      0x2b7 build/obj/signal_executor.o
 .debug_loc     0x00012761      0x712 build/obj/interpolation.o
 .debug_loc     0x00012e73      0x280 build/obj/malfunction_central.o
 .debug_loc     0x000130f3      0x16b build/obj/event_registry.o
 .debug_loc     0x0001325e      0x2bc build/obj/idle_controller.o
 .debug_loc     0x0001351a      0x25f build/obj/wave_chart.o
 .debug_loc     0x00013779      0x8b1 build/obj/nmea.o
 .debug_loc     0x0001402a       0x20 build/obj/algo.o
 .debug_loc     0x0001404a      0x1f0 build/obj/tps.o
 .debug_loc     0x0001423a       0x20 build/obj/allsensors.o
 .debug_loc     0x0001425a       0x20 build/obj/maf.o
 .debug_loc     0x0001427a      0x1c2 build/obj/map.o
 .debug_loc     0x0001443c       0x4f build/obj/ego.o
 .debug_loc     0x0001448b       0x40 build/obj/voltage.o
 .debug_loc     0x000144cb      0x667 build/obj/thermistors.o
 .debug_loc     0x00014b32      0x4da build/obj/stm32_dma.o
 .debug_loc     0x0001500c       0x20 build/obj/hal_lld.o
 .debug_loc     0x0001502c      0x424 build/obj/adc_lld.o
 .debug_loc     0x00015450      0x9ae build/obj/can_lld.o
 .debug_loc     0x00015dfe      0x1f0 build/obj/pal_lld.o
 .debug_loc     0x00015fee      0x80a build/obj/i2c_lld.o
 .debug_loc     0x000167f8     0x1283 build/obj/usb_lld.o
 .debug_loc     0x00017a7b      0x600 build/obj/rtc_lld.o
 .debug_loc     0x0001807b      0x478 build/obj/spi_lld.o
 .debug_loc     0x000184f3      0x21a build/obj/icu_lld.o
 .debug_loc     0x0001870d      0x2b4 build/obj/pwm_lld.o
 .debug_loc     0x000189c1      0x39c build/obj/serial_lld.o
 .debug_loc     0x00018d5d       0x62 build/obj/board.o
 .debug_loc     0x00018dbf      0x438 build/obj/fatfs_diskio.o
 .debug_loc     0x000191f7       0x8d build/obj/fatfs_syscall.o
 .debug_loc     0x00019284     0x4eeb build/obj/ff.o
 .debug_loc     0x0001e16f      0x179 build/obj/ccsbcs.o
 .debug_loc     0x0001e2e8      0x1ad build/obj/trigger_central.o
 .debug_loc     0x0001e495       0xe2 build/obj/trigger_mazda.o
 .debug_loc     0x0001e577      0x21f build/obj/trigger_structure.o
 .debug_loc     0x0001e796      0x438 build/obj/rpm_calculator.o
 .debug_loc     0x0001ebce      0x375 build/obj/pwm_generator_logic.o
 .debug_loc     0x0001ef43       0x70 build/obj/signal_temp.o
 .debug_loc     0x0001efb3      0x174 build/obj/signal_executor_sleep.o

.debug_aranges  0x00000000     0x26b0
 .debug_aranges
                0x00000000       0x38 build/obj/crt0.o
 .debug_aranges
                0x00000038       0x20 build/obj/vectors.o
 .debug_aranges
                0x00000058       0x20 build/obj/chcore.o
 .debug_aranges
                0x00000078       0x50 build/obj/chcore_v7m.o
 .debug_aranges
                0x000000c8       0x30 build/obj/nvic.o
 .debug_aranges
                0x000000f8       0x30 build/obj/chsys.o
 .debug_aranges
                0x00000128       0x78 build/obj/chdebug.o
 .debug_aranges
                0x000001a0       0x30 build/obj/chvt.o
 .debug_aranges
                0x000001d0       0x68 build/obj/chschd.o
 .debug_aranges
                0x00000238       0x78 build/obj/chthreads.o
 .debug_aranges
                0x000002b0       0x38 build/obj/chdynamic.o
 .debug_aranges
                0x000002e8       0x28 build/obj/chregistry.o
 .debug_aranges
                0x00000310       0x70 build/obj/chsem.o
 .debug_aranges
                0x00000380       0x58 build/obj/chmtx.o
 .debug_aranges
                0x000003d8       0xa0 build/obj/chevents.o
 .debug_aranges
                0x00000478       0x70 build/obj/chqueues.o
 .debug_aranges
                0x000004e8       0x38 build/obj/chmemcore.o
 .debug_aranges
                0x00000520       0x40 build/obj/chheap.o
 .debug_aranges
                0x00000560       0x48 build/obj/chmempools.o
 .debug_aranges
                0x000005a8       0x38 build/obj/chprintf.o
 .debug_aranges
                0x000005e0       0x40 build/obj/memstreams.o
 .debug_aranges
                0x00000620       0x50 build/obj/chrtclib.o
 .debug_aranges
                0x00000670       0x40 build/obj/listener_array.o
 .debug_aranges
                0x000006b0       0x20 build/obj/crc.o
 .debug_aranges
                0x000006d0       0x40 build/obj/histogram.o
 .debug_aranges
                0x00000710       0x98 build/obj/eficonsole_logic.o
 .debug_aranges
                0x000007a8       0x20 build/obj/dodge_neon.o
 .debug_aranges
                0x000007c8       0x20 build/obj/ford_fiesta.o
 .debug_aranges
                0x000007e8       0x20 build/obj/ford_1995_inline_6.o
 .debug_aranges
                0x00000808       0x20 build/obj/nissan_primera.o
 .debug_aranges
                0x00000828       0x20 build/obj/mazda_miata_nb.o
 .debug_aranges
                0x00000848       0x20 build/obj/honda_accord.o
 .debug_aranges
                0x00000868       0x20 build/obj/GY6_139QMB.o
 .debug_aranges
                0x00000888       0x20 build/obj/mazda_323.o
 .debug_aranges
                0x000008a8       0x50 build/obj/eficonsole.o
 .debug_aranges
                0x000008f8       0x58 build/obj/console_io.o
 .debug_aranges
                0x00000950       0xa0 build/obj/status_loop.o
 .debug_aranges
                0x000009f0       0x38 build/obj/tunerstudio_algo.o
 .debug_aranges
                0x00000a28       0x78 build/obj/tunerstudio.o
 .debug_aranges
                0x00000aa0       0xd0 build/obj/datalogging.o
 .debug_aranges
                0x00000b70       0x50 build/obj/rfiutil.o
 .debug_aranges
                0x00000bc0       0x30 build/obj/hal.o
 .debug_aranges
                0x00000bf0       0x70 build/obj/adc.o
 .debug_aranges
                0x00000c60       0x58 build/obj/can.o
 .debug_aranges
                0x00000cb8       0x60 build/obj/i2c.o
 .debug_aranges
                0x00000d18       0x48 build/obj/icu.o
 .debug_aranges
                0x00000d60       0xd8 build/obj/mmc_spi.o
 .debug_aranges
                0x00000e38       0x28 build/obj/mmcsd.o
 .debug_aranges
                0x00000e60       0x50 build/obj/pwm.o
 .debug_aranges
                0x00000eb0       0x48 build/obj/rtc.o
 .debug_aranges
                0x00000ef8       0x88 build/obj/serial.o
 .debug_aranges
                0x00000f80       0xb0 build/obj/serial_usb.o
 .debug_aranges
                0x00001030       0x98 build/obj/spi.o
 .debug_aranges
                0x000010c8       0xa8 build/obj/usb.o
 .debug_aranges
                0x00001170       0x28 build/obj/analog_chart.o
 .debug_aranges
                0x00001198       0xb0 build/obj/wave_analyzer.o
 .debug_aranges
                0x00001248       0x38 build/obj/hardware.o
 .debug_aranges
                0x00001280       0xa0 build/obj/adc_inputs.o
 .debug_aranges
                0x00001320       0x30 build/obj/trigger_input.o
 .debug_aranges
                0x00001350       0x58 build/obj/pin_repository.o
 .debug_aranges
                0x000013a8       0x88 build/obj/io_pins.o
 .debug_aranges
                0x00001430       0x68 build/obj/lcd_HD44780.o
 .debug_aranges
                0x00001498       0x28 build/obj/usbcfg.o
 .debug_aranges
                0x000014c0       0x30 build/obj/usbconsole.o
 .debug_aranges
                0x000014f0       0x78 build/obj/flash.o
 .debug_aranges
                0x00001568       0x50 build/obj/rtc_helper.o
 .debug_aranges
                0x000015b8       0x58 build/obj/mmc_card.o
 .debug_aranges
                0x00001610       0x38 build/obj/neo6m.o
 .debug_aranges
                0x00001648       0x38 build/obj/gpio_helper.o
 .debug_aranges
                0x00001680       0x20 build/obj/board_test.o
 .debug_aranges
                0x000016a0       0x40 build/obj/wave_analyzer_hw.o
 .debug_aranges
                0x000016e0       0x38 build/obj/pwm_generator.o
 .debug_aranges
                0x00001718       0x68 build/obj/injector_central.o
 .debug_aranges
                0x00001780       0x20 build/obj/ignition_central.o
 .debug_aranges
                0x000017a0       0x40 build/obj/flash_main.o
 .debug_aranges
                0x000017e0       0x30 build/obj/malfunction_indicator.o
 .debug_aranges
                0x00001810       0x28 build/obj/error_handling.o
 .debug_aranges
                0x00001838       0x58 build/obj/map_averaging.o
 .debug_aranges
                0x00001890       0x68 build/obj/fuel_math.o
 .debug_aranges
                0x000018f8       0x30 build/obj/advance_map.o
 .debug_aranges
                0x00001928       0x60 build/obj/engine_configuration.o
 .debug_aranges
                0x00001988       0x50 build/obj/signal_executor.o
 .debug_aranges
                0x000019d8       0x40 build/obj/interpolation.o
 .debug_aranges
                0x00001a18       0x50 build/obj/malfunction_central.o
 .debug_aranges
                0x00001a68       0x30 build/obj/event_registry.o
 .debug_aranges
                0x00001a98       0x58 build/obj/idle_controller.o
 .debug_aranges
                0x00001af0       0x60 build/obj/wave_chart.o
 .debug_aranges
                0x00001b50       0x68 build/obj/nmea.o
 .debug_aranges
                0x00001bb8       0x20 build/obj/algo.o
 .debug_aranges
                0x00001bd8       0x50 build/obj/tps.o
 .debug_aranges
                0x00001c28       0x20 build/obj/allsensors.o
 .debug_aranges
                0x00001c48       0x20 build/obj/maf.o
 .debug_aranges
                0x00001c68       0x38 build/obj/map.o
 .debug_aranges
                0x00001ca0       0x20 build/obj/ego.o
 .debug_aranges
                0x00001cc0       0x28 build/obj/voltage.o
 .debug_aranges
                0x00001ce8       0xb8 build/obj/thermistors.o
 .debug_aranges
                0x00001da0       0xb0 build/obj/stm32_dma.o
 .debug_aranges
                0x00001e50       0x28 build/obj/hal_lld.o
 .debug_aranges
                0x00001e78       0x70 build/obj/adc_lld.o
 .debug_aranges
                0x00001ee8       0xd0 build/obj/can_lld.o
 .debug_aranges
                0x00001fb8       0x30 build/obj/pal_lld.o
 .debug_aranges
                0x00001fe8       0x70 build/obj/i2c_lld.o
 .debug_aranges
                0x00002058      0x100 build/obj/usb_lld.o
 .debug_aranges
                0x00002158       0x58 build/obj/rtc_lld.o
 .debug_aranges
                0x000021b0       0x78 build/obj/spi_lld.o
 .debug_aranges
                0x00002228       0x70 build/obj/icu_lld.o
 .debug_aranges
                0x00002298       0x58 build/obj/pwm_lld.o
 .debug_aranges
                0x000022f0       0x68 build/obj/serial_lld.o
 .debug_aranges
                0x00002358       0x38 build/obj/board.o
 .debug_aranges
                0x00002390       0x48 build/obj/fatfs_diskio.o
 .debug_aranges
                0x000023d8       0x28 build/obj/fatfs_syscall.o
 .debug_aranges
                0x00002400       0xe8 build/obj/ff.o
 .debug_aranges
                0x000024e8       0x28 build/obj/ccsbcs.o
 .debug_aranges
                0x00002510       0x40 build/obj/trigger_central.o
 .debug_aranges
                0x00002550       0x28 build/obj/trigger_mazda.o
 .debug_aranges
                0x00002578       0x38 build/obj/trigger_structure.o
 .debug_aranges
                0x000025b0       0x78 build/obj/rpm_calculator.o
 .debug_aranges
                0x00002628       0x30 build/obj/pwm_generator_logic.o
 .debug_aranges
                0x00002658       0x30 build/obj/signal_temp.o
 .debug_aranges
                0x00002688       0x28 build/obj/signal_executor_sleep.o

.debug_ranges   0x00000000     0x2a50
 .debug_ranges  0x00000000       0xc0 build/obj/crt0.o
 .debug_ranges  0x000000c0       0x10 build/obj/vectors.o
 .debug_ranges  0x000000d0       0x10 build/obj/chcore.o
 .debug_ranges  0x000000e0       0x40 build/obj/chcore_v7m.o
 .debug_ranges  0x00000120       0x20 build/obj/nvic.o
 .debug_ranges  0x00000140       0x38 build/obj/chsys.o
 .debug_ranges  0x00000178       0x68 build/obj/chdebug.o
 .debug_ranges  0x000001e0       0x20 build/obj/chvt.o
 .debug_ranges  0x00000200       0x58 build/obj/chschd.o
 .debug_ranges  0x00000258       0x68 build/obj/chthreads.o
 .debug_ranges  0x000002c0       0x28 build/obj/chdynamic.o
 .debug_ranges  0x000002e8       0x18 build/obj/chregistry.o
 .debug_ranges  0x00000300      0x100 build/obj/chsem.o
 .debug_ranges  0x00000400       0x48 build/obj/chmtx.o
 .debug_ranges  0x00000448       0x90 build/obj/chevents.o
 .debug_ranges  0x000004d8       0xc0 build/obj/chqueues.o
 .debug_ranges  0x00000598       0x28 build/obj/chmemcore.o
 .debug_ranges  0x000005c0       0x30 build/obj/chheap.o
 .debug_ranges  0x000005f0       0x38 build/obj/chmempools.o
 .debug_ranges  0x00000628       0x28 build/obj/chprintf.o
 .debug_ranges  0x00000650       0x30 build/obj/memstreams.o
 .debug_ranges  0x00000680       0x40 build/obj/chrtclib.o
 .debug_ranges  0x000006c0       0x90 build/obj/listener_array.o
 .debug_ranges  0x00000750       0x40 build/obj/crc.o
 .debug_ranges  0x00000790       0xf0 build/obj/histogram.o
 .debug_ranges  0x00000880      0x190 build/obj/eficonsole_logic.o
 .debug_ranges  0x00000a10       0x10 build/obj/dodge_neon.o
 .debug_ranges  0x00000a20       0x10 build/obj/ford_fiesta.o
 .debug_ranges  0x00000a30       0x10 build/obj/ford_1995_inline_6.o
 .debug_ranges  0x00000a40       0x10 build/obj/nissan_primera.o
 .debug_ranges  0x00000a50       0x10 build/obj/mazda_miata_nb.o
 .debug_ranges  0x00000a60       0x10 build/obj/honda_accord.o
 .debug_ranges  0x00000a70       0x10 build/obj/GY6_139QMB.o
 .debug_ranges  0x00000a80       0x10 build/obj/mazda_323.o
 .debug_ranges  0x00000a90       0x40 build/obj/eficonsole.o
 .debug_ranges  0x00000ad0       0x90 build/obj/console_io.o
 .debug_ranges  0x00000b60       0xa8 build/obj/status_loop.o
 .debug_ranges  0x00000c08       0x28 build/obj/tunerstudio_algo.o
 .debug_ranges  0x00000c30       0x68 build/obj/tunerstudio.o
 .debug_ranges  0x00000c98       0xc0 build/obj/datalogging.o
 .debug_ranges  0x00000d58       0x58 build/obj/rfiutil.o
 .debug_ranges  0x00000db0       0x20 build/obj/hal.o
 .debug_ranges  0x00000dd0       0x60 build/obj/adc.o
 .debug_ranges  0x00000e30       0x48 build/obj/can.o
 .debug_ranges  0x00000e78       0x50 build/obj/i2c.o
 .debug_ranges  0x00000ec8       0x38 build/obj/icu.o
 .debug_ranges  0x00000f00       0xe0 build/obj/mmc_spi.o
 .debug_ranges  0x00000fe0       0x18 build/obj/mmcsd.o
 .debug_ranges  0x00000ff8       0x40 build/obj/pwm.o
 .debug_ranges  0x00001038       0x38 build/obj/rtc.o
 .debug_ranges  0x00001070       0x78 build/obj/serial.o
 .debug_ranges  0x000010e8       0xa0 build/obj/serial_usb.o
 .debug_ranges  0x00001188       0x88 build/obj/spi.o
 .debug_ranges  0x00001210       0x98 build/obj/usb.o
 .debug_ranges  0x000012a8       0x18 build/obj/analog_chart.o
 .debug_ranges  0x000012c0       0xa0 build/obj/wave_analyzer.o
 .debug_ranges  0x00001360       0x28 build/obj/hardware.o
 .debug_ranges  0x00001388       0x90 build/obj/adc_inputs.o
 .debug_ranges  0x00001418       0x20 build/obj/trigger_input.o
 .debug_ranges  0x00001438       0x80 build/obj/pin_repository.o
 .debug_ranges  0x000014b8       0x78 build/obj/io_pins.o
 .debug_ranges  0x00001530       0x88 build/obj/lcd_HD44780.o
 .debug_ranges  0x000015b8       0x18 build/obj/usbcfg.o
 .debug_ranges  0x000015d0       0x20 build/obj/usbconsole.o
 .debug_ranges  0x000015f0       0x68 build/obj/flash.o
 .debug_ranges  0x00001658       0x40 build/obj/rtc_helper.o
 .debug_ranges  0x00001698       0x48 build/obj/mmc_card.o
 .debug_ranges  0x000016e0       0x40 build/obj/neo6m.o
 .debug_ranges  0x00001720       0x28 build/obj/gpio_helper.o
 .debug_ranges  0x00001748       0x10 build/obj/board_test.o
 .debug_ranges  0x00001758       0x48 build/obj/wave_analyzer_hw.o
 .debug_ranges  0x000017a0       0x40 build/obj/pwm_generator.o
 .debug_ranges  0x000017e0       0x88 build/obj/injector_central.o
 .debug_ranges  0x00001868       0x10 build/obj/ignition_central.o
 .debug_ranges  0x00001878       0x30 build/obj/flash_main.o
 .debug_ranges  0x000018a8       0xe0 build/obj/malfunction_indicator.o
 .debug_ranges  0x00001988       0x18 build/obj/error_handling.o
 .debug_ranges  0x000019a0       0x48 build/obj/map_averaging.o
 .debug_ranges  0x000019e8       0x88 build/obj/fuel_math.o
 .debug_ranges  0x00001a70       0x20 build/obj/advance_map.o
 .debug_ranges  0x00001a90       0x50 build/obj/engine_configuration.o
 .debug_ranges  0x00001ae0       0x40 build/obj/signal_executor.o
 .debug_ranges  0x00001b20       0x30 build/obj/interpolation.o
 .debug_ranges  0x00001b50       0x90 build/obj/malfunction_central.o
 .debug_ranges  0x00001be0       0x20 build/obj/event_registry.o
 .debug_ranges  0x00001c00       0x48 build/obj/idle_controller.o
 .debug_ranges  0x00001c48       0x50 build/obj/wave_chart.o
 .debug_ranges  0x00001c98       0x58 build/obj/nmea.o
 .debug_ranges  0x00001cf0       0x10 build/obj/algo.o
 .debug_ranges  0x00001d00       0x40 build/obj/tps.o
 .debug_ranges  0x00001d40       0x10 build/obj/allsensors.o
 .debug_ranges  0x00001d50       0x10 build/obj/maf.o
 .debug_ranges  0x00001d60       0x28 build/obj/map.o
 .debug_ranges  0x00001d88       0x10 build/obj/ego.o
 .debug_ranges  0x00001d98       0x18 build/obj/voltage.o
 .debug_ranges  0x00001db0       0xa8 build/obj/thermistors.o
 .debug_ranges  0x00001e58       0xa0 build/obj/stm32_dma.o
 .debug_ranges  0x00001ef8       0x18 build/obj/hal_lld.o
 .debug_ranges  0x00001f10       0x60 build/obj/adc_lld.o
 .debug_ranges  0x00001f70       0xc0 build/obj/can_lld.o
 .debug_ranges  0x00002030       0x38 build/obj/pal_lld.o
 .debug_ranges  0x00002068       0xf0 build/obj/i2c_lld.o
 .debug_ranges  0x00002158      0x148 build/obj/usb_lld.o
 .debug_ranges  0x000022a0       0x48 build/obj/rtc_lld.o
 .debug_ranges  0x000022e8       0x68 build/obj/spi_lld.o
 .debug_ranges  0x00002350       0x60 build/obj/icu_lld.o
 .debug_ranges  0x000023b0       0x48 build/obj/pwm_lld.o
 .debug_ranges  0x000023f8       0x88 build/obj/serial_lld.o
 .debug_ranges  0x00002480       0x28 build/obj/board.o
 .debug_ranges  0x000024a8       0x38 build/obj/fatfs_diskio.o
 .debug_ranges  0x000024e0       0x18 build/obj/fatfs_syscall.o
 .debug_ranges  0x000024f8      0x340 build/obj/ff.o
 .debug_ranges  0x00002838       0x18 build/obj/ccsbcs.o
 .debug_ranges  0x00002850       0x30 build/obj/trigger_central.o
 .debug_ranges  0x00002880       0x18 build/obj/trigger_mazda.o
 .debug_ranges  0x00002898       0x28 build/obj/trigger_structure.o
 .debug_ranges  0x000028c0       0x68 build/obj/rpm_calculator.o
 .debug_ranges  0x00002928       0xf0 build/obj/pwm_generator_logic.o
 .debug_ranges  0x00002a18       0x20 build/obj/signal_temp.o
 .debug_ranges  0x00002a38       0x18 build/obj/signal_executor_sleep.o

.debug_line     0x00000000    0x173e2
 .debug_line    0x00000000      0x182 build/obj/crt0.o
 .debug_line    0x00000182       0xe8 build/obj/vectors.o
 .debug_line    0x0000026a       0x55 build/obj/chcore.o
 .debug_line    0x000002bf      0x22d build/obj/chcore_v7m.o
 .debug_line    0x000004ec      0x118 build/obj/nvic.o
 .debug_line    0x00000604      0x248 build/obj/chsys.o
 .debug_line    0x0000084c      0x21f build/obj/chdebug.o
 .debug_line    0x00000a6b      0x1a0 build/obj/chvt.o
 .debug_line    0x00000c0b      0x2d7 build/obj/chschd.o
 .debug_line    0x00000ee2      0x37d build/obj/chthreads.o
 .debug_line    0x0000125f      0x29d build/obj/chdynamic.o
 .debug_line    0x000014fc      0x220 build/obj/chregistry.o
 .debug_line    0x0000171c      0x41c build/obj/chsem.o
 .debug_line    0x00001b38      0x335 build/obj/chmtx.o
 .debug_line    0x00001e6d      0x371 build/obj/chevents.o
 .debug_line    0x000021de      0x3a3 build/obj/chqueues.o
 .debug_line    0x00002581      0x1ae build/obj/chmemcore.o
 .debug_line    0x0000272f      0x2cc build/obj/chheap.o
 .debug_line    0x000029fb      0x24c build/obj/chmempools.o
 .debug_line    0x00002c47      0x312 build/obj/chprintf.o
 .debug_line    0x00002f59      0x1d7 build/obj/memstreams.o
 .debug_line    0x00003130      0x30e build/obj/chrtclib.o
 .debug_line    0x0000343e      0x1b8 build/obj/listener_array.o
 .debug_line    0x000035f6       0x71 build/obj/crc.o
 .debug_line    0x00003667      0x2d1 build/obj/histogram.o
 .debug_line    0x00003938      0x3d6 build/obj/eficonsole_logic.o
 .debug_line    0x00003d0e      0x1e8 build/obj/dodge_neon.o
 .debug_line    0x00003ef6      0x1b5 build/obj/ford_fiesta.o
 .debug_line    0x000040ab      0x1f4 build/obj/ford_1995_inline_6.o
 .debug_line    0x0000429f      0x1b4 build/obj/nissan_primera.o
 .debug_line    0x00004453      0x1f2 build/obj/mazda_miata_nb.o
 .debug_line    0x00004645      0x1b2 build/obj/honda_accord.o
 .debug_line    0x000047f7      0x1bb build/obj/GY6_139QMB.o
 .debug_line    0x000049b2      0x1b2 build/obj/mazda_323.o
 .debug_line    0x00004b64      0x407 build/obj/eficonsole.o
 .debug_line    0x00004f6b      0x3a7 build/obj/console_io.o
 .debug_line    0x00005312      0x6e5 build/obj/status_loop.o
 .debug_line    0x000059f7      0x25e build/obj/tunerstudio_algo.o
 .debug_line    0x00005c55      0x5f6 build/obj/tunerstudio.o
 .debug_line    0x0000624b      0x4b0 build/obj/datalogging.o
 .debug_line    0x000066fb      0x24e build/obj/rfiutil.o
 .debug_line    0x00006949      0x2c4 build/obj/hal.o
 .debug_line    0x00006c0d      0x3f8 build/obj/adc.o
 .debug_line    0x00007005      0x399 build/obj/can.o
 .debug_line    0x0000739e      0x3e9 build/obj/i2c.o
 .debug_line    0x00007787      0x257 build/obj/icu.o
 .debug_line    0x000079de      0x6da build/obj/mmc_spi.o
 .debug_line    0x000080b8      0x156 build/obj/mmcsd.o
 .debug_line    0x0000820e      0x283 build/obj/pwm.o
 .debug_line    0x00008491      0x29a build/obj/rtc.o
 .debug_line    0x0000872b      0x3fd build/obj/serial.o
 .debug_line    0x00008b28      0x48e build/obj/serial_usb.o
 .debug_line    0x00008fb6      0x595 build/obj/spi.o
 .debug_line    0x0000954b      0x518 build/obj/usb.o
 .debug_line    0x00009a63      0x216 build/obj/analog_chart.o
 .debug_line    0x00009c79      0x564 build/obj/wave_analyzer.o
 .debug_line    0x0000a1dd      0x4c6 build/obj/hardware.o
 .debug_line    0x0000a6a3      0x6d8 build/obj/adc_inputs.o
 .debug_line    0x0000ad7b      0x2f5 build/obj/trigger_input.o
 .debug_line    0x0000b070      0x3cd build/obj/pin_repository.o
 .debug_line    0x0000b43d      0x44a build/obj/io_pins.o
 .debug_line    0x0000b887      0x4ea build/obj/lcd_HD44780.o
 .debug_line    0x0000bd71      0x2b7 build/obj/usbcfg.o
 .debug_line    0x0000c028      0x362 build/obj/usbconsole.o
 .debug_line    0x0000c38a      0x37f build/obj/flash.o
 .debug_line    0x0000c709      0x331 build/obj/rtc_helper.o
 .debug_line    0x0000ca3a      0x461 build/obj/mmc_card.o
 .debug_line    0x0000ce9b      0x3df build/obj/neo6m.o
 .debug_line    0x0000d27a      0x19a build/obj/gpio_helper.o
 .debug_line    0x0000d414      0x1b4 build/obj/board_test.o
 .debug_line    0x0000d5c8      0x27a build/obj/wave_analyzer_hw.o
 .debug_line    0x0000d842      0x2cb build/obj/pwm_generator.o
 .debug_line    0x0000db0d      0x549 build/obj/injector_central.o
 .debug_line    0x0000e056      0x180 build/obj/ignition_central.o
 .debug_line    0x0000e1d6      0x41f build/obj/flash_main.o
 .debug_line    0x0000e5f5      0x307 build/obj/malfunction_indicator.o
 .debug_line    0x0000e8fc      0x2d0 build/obj/error_handling.o
 .debug_line    0x0000ebcc      0x421 build/obj/map_averaging.o
 .debug_line    0x0000efed      0x30d build/obj/fuel_math.o
 .debug_line    0x0000f2fa      0x241 build/obj/advance_map.o
 .debug_line    0x0000f53b      0x5da build/obj/engine_configuration.o
 .debug_line    0x0000fb15      0x308 build/obj/signal_executor.o
 .debug_line    0x0000fe1d      0x215 build/obj/interpolation.o
 .debug_line    0x00010032      0x247 build/obj/malfunction_central.o
 .debug_line    0x00010279      0x27c build/obj/event_registry.o
 .debug_line    0x000104f5      0x10a build/obj/idle_controller.o
 .debug_line    0x000105ff      0x297 build/obj/wave_chart.o
 .debug_line    0x00010896      0x30c build/obj/nmea.o
 .debug_line    0x00010ba2      0x18e build/obj/algo.o
 .debug_line    0x00010d30      0x308 build/obj/tps.o
 .debug_line    0x00011038      0x127 build/obj/allsensors.o
 .debug_line    0x0001115f      0x1c6 build/obj/maf.o
 .debug_line    0x00011325      0x22a build/obj/map.o
 .debug_line    0x0001154f      0x1dd build/obj/ego.o
 .debug_line    0x0001172c      0x1de build/obj/voltage.o
 .debug_line    0x0001190a      0x4c2 build/obj/thermistors.o
 .debug_line    0x00011dcc      0x3d3 build/obj/stm32_dma.o
 .debug_line    0x0001219f      0x1dd build/obj/hal_lld.o
 .debug_line    0x0001237c      0x44e build/obj/adc_lld.o
 .debug_line    0x000127ca      0x502 build/obj/can_lld.o
 .debug_line    0x00012ccc      0x1bc build/obj/pal_lld.o
 .debug_line    0x00012e88      0x521 build/obj/i2c_lld.o
 .debug_line    0x000133a9      0x708 build/obj/usb_lld.o
 .debug_line    0x00013ab1      0x2e7 build/obj/rtc_lld.o
 .debug_line    0x00013d98      0x424 build/obj/spi_lld.o
 .debug_line    0x000141bc      0x358 build/obj/icu_lld.o
 .debug_line    0x00014514      0x307 build/obj/pwm_lld.o
 .debug_line    0x0001481b      0x3cd build/obj/serial_lld.o
 .debug_line    0x00014be8      0x2b9 build/obj/board.o
 .debug_line    0x00014ea1      0x396 build/obj/fatfs_diskio.o
 .debug_line    0x00015237      0x211 build/obj/fatfs_syscall.o
 .debug_line    0x00015448      0xa1a build/obj/ff.o
 .debug_line    0x00015e62       0xad build/obj/ccsbcs.o
 .debug_line    0x00015f0f      0x40f build/obj/trigger_central.o
 .debug_line    0x0001631e      0x2e5 build/obj/trigger_mazda.o
 .debug_line    0x00016603      0x1ab build/obj/trigger_structure.o
 .debug_line    0x000167ae      0x421 build/obj/rpm_calculator.o
 .debug_line    0x00016bcf      0x408 build/obj/pwm_generator_logic.o
 .debug_line    0x00016fd7      0x1ba build/obj/signal_temp.o
 .debug_line    0x00017191      0x251 build/obj/signal_executor_sleep.o

.debug_str      0x00000000     0xa407
 .debug_str     0x00000000      0x1f8 build/obj/crt0.o
                                0x237 (size before relaxing)
 .debug_str     0x000001f8      0x147 build/obj/vectors.o
                                0x262 (size before relaxing)
 .debug_str     0x0000033f       0x2f build/obj/chcore.o
                                0x135 (size before relaxing)
 .debug_str     0x0000036e      0x3a1 build/obj/chcore_v7m.o
                                0x4d6 (size before relaxing)
 .debug_str     0x0000070f       0x98 build/obj/nvic.o
                                0x234 (size before relaxing)
 .debug_str     0x000007a7      0x230 build/obj/chsys.o
                                0x55c (size before relaxing)
 .debug_str     0x000009d7       0x93 build/obj/chdebug.o
                                0x24c (size before relaxing)
 .debug_str     0x00000a6a       0x38 build/obj/chvt.o
                                0x1dd (size before relaxing)
 .debug_str     0x00000aa2       0xe8 build/obj/chschd.o
                                0x4ad (size before relaxing)
 .debug_str     0x00000b8a       0xd5 build/obj/chthreads.o
                                0x4e9 (size before relaxing)
 .debug_str     0x00000c5f      0x10f build/obj/chdynamic.o
                                0x43b (size before relaxing)
 .debug_str     0x00000d6e       0x44 build/obj/chregistry.o
                                0x44f (size before relaxing)
 .debug_str     0x00000db2       0xca build/obj/chsem.o
                                0x473 (size before relaxing)
 .debug_str     0x00000e7c       0x93 build/obj/chmtx.o
                                0x403 (size before relaxing)
 .debug_str     0x00000f0f      0x1bb build/obj/chevents.o
                                0x527 (size before relaxing)
 .debug_str     0x000010ca      0x11b build/obj/chqueues.o
                                0x483 (size before relaxing)
 .debug_str     0x000011e5       0x72 build/obj/chmemcore.o
                                0x1d1 (size before relaxing)
 .debug_str     0x00001257       0x4a build/obj/chheap.o
                                0x3a2 (size before relaxing)
 .debug_str     0x000012a1       0x57 build/obj/chmempools.o
                                0x22b (size before relaxing)
 .debug_str     0x000012f8       0xfa build/obj/chprintf.o
                                0x24c (size before relaxing)
 .debug_str     0x000013f2       0x5c build/obj/memstreams.o
                                0x19c (size before relaxing)
 .debug_str     0x0000144e      0x24a build/obj/chrtclib.o
                                0x378 (size before relaxing)
 .debug_str     0x00001698       0xf0 build/obj/listener_array.o
                                0x24d (size before relaxing)
 .debug_str     0x00001788       0x27 build/obj/crc.o
                                 0xb0 (size before relaxing)
 .debug_str     0x000017af       0xf1 build/obj/histogram.o
                                0x26f (size before relaxing)
 .debug_str     0x000018a0      0x3a3 build/obj/eficonsole_logic.o
                                0x536 (size before relaxing)
 .debug_str     0x00001c43     0x113b build/obj/dodge_neon.o
                               0x12f0 (size before relaxing)
 .debug_str     0x00002d7e       0x47 build/obj/ford_fiesta.o
                                0xcc0 (size before relaxing)
 .debug_str     0x00002dc5       0x5f build/obj/ford_1995_inline_6.o
                               0x1301 (size before relaxing)
 .debug_str     0x00002e24       0x46 build/obj/nissan_primera.o
                                0xcbf (size before relaxing)
 .debug_str     0x00002e6a       0x45 build/obj/mazda_miata_nb.o
                               0x12f7 (size before relaxing)
 .debug_str     0x00002eaf       0x3c build/obj/honda_accord.o
                                0xcb5 (size before relaxing)
 .debug_str     0x00002eeb       0x8c build/obj/GY6_139QMB.o
                                0xcc9 (size before relaxing)
 .debug_str     0x00002f77       0x3c build/obj/mazda_323.o
                                0xcb5 (size before relaxing)
 .debug_str     0x00002fb3      0x773 build/obj/eficonsole.o
                                0xcc3 (size before relaxing)
 .debug_str     0x00003726       0xf7 build/obj/console_io.o
                                0xcc8 (size before relaxing)
 .debug_str     0x0000381d      0xbe1 build/obj/status_loop.o
                               0x1c27 (size before relaxing)
 .debug_str     0x000043fe      0x259 build/obj/tunerstudio_algo.o
                               0x14c5 (size before relaxing)
 .debug_str     0x00004657      0x2e8 build/obj/tunerstudio.o
                               0x1c05 (size before relaxing)
 .debug_str     0x0000493f      0x183 build/obj/datalogging.o
                                0x5f4 (size before relaxing)
 .debug_str     0x00004ac2       0x67 build/obj/rfiutil.o
                                0x369 (size before relaxing)
 .debug_str     0x00004b29      0x19d build/obj/hal.o
                                0x2e4 (size before relaxing)
 .debug_str     0x00004cc6      0x2fb build/obj/adc.o
                                0x6ad (size before relaxing)
 .debug_str     0x00004fc1      0x297 build/obj/can.o
                                0x6b2 (size before relaxing)
 .debug_str     0x00005258      0x289 build/obj/i2c.o
                                0x671 (size before relaxing)
 .debug_str     0x000054e1      0x1e7 build/obj/icu.o
                                0x36a (size before relaxing)
 .debug_str     0x000056c8      0x39c build/obj/mmc_spi.o
                                0x817 (size before relaxing)
 .debug_str     0x00005a64       0x4c build/obj/mmcsd.o
                                0x198 (size before relaxing)
 .debug_str     0x00005ab0      0x143 build/obj/pwm.o
                                0x346 (size before relaxing)
 .debug_str     0x00005bf3       0xd1 build/obj/rtc.o
                                0x376 (size before relaxing)
 .debug_str     0x00005cc4       0x84 build/obj/serial.o
                                0x5fb (size before relaxing)
 .debug_str     0x00005d48      0x13d build/obj/serial_usb.o
                                0xcdb (size before relaxing)
 .debug_str     0x00005e85      0x111 build/obj/spi.o
                                0x6a3 (size before relaxing)
 .debug_str     0x00005f96      0x2ab build/obj/usb.o
                                0xd12 (size before relaxing)
 .debug_str     0x00006241       0x45 build/obj/analog_chart.o
                                0xdaa (size before relaxing)
 .debug_str     0x00006286      0x356 build/obj/wave_analyzer.o
                                0xa06 (size before relaxing)
 .debug_str     0x000065dc      0x187 build/obj/hardware.o
                                0x85d (size before relaxing)
 .debug_str     0x00006763      0x2a3 build/obj/adc_inputs.o
                               0x163a (size before relaxing)
 .debug_str     0x00006a06       0xb2 build/obj/trigger_input.o
                               0x102a (size before relaxing)
 .debug_str     0x00006ab8      0x101 build/obj/pin_repository.o
                                0x71f (size before relaxing)
 .debug_str     0x00006bb9      0x1ce build/obj/io_pins.o
                               0x101b (size before relaxing)
 .debug_str     0x00006d87      0x154 build/obj/lcd_HD44780.o
                               0x1992 (size before relaxing)
 .debug_str     0x00006edb      0x14a build/obj/usbcfg.o
                                0xc3f (size before relaxing)
 .debug_str     0x00007025       0x3c build/obj/usbconsole.o
                                0xc67 (size before relaxing)
 .debug_str     0x00007061      0x141 build/obj/flash.o
                                0x2c0 (size before relaxing)
 .debug_str     0x000071a2       0x6c build/obj/rtc_helper.o
                                0x44a (size before relaxing)
 .debug_str     0x0000720e      0x34a build/obj/mmc_card.o
                                0xaec (size before relaxing)
 .debug_str     0x00007558      0x13b build/obj/neo6m.o
                                0x7f3 (size before relaxing)
 .debug_str     0x00007693       0x4b build/obj/gpio_helper.o
                                0x260 (size before relaxing)
 .debug_str     0x000076de       0x5f build/obj/board_test.o
                                0x652 (size before relaxing)
 .debug_str     0x0000773d       0x97 build/obj/wave_analyzer_hw.o
                                0x4cd (size before relaxing)
 .debug_str     0x000077d4      0x158 build/obj/pwm_generator.o
                                0xba6 (size before relaxing)
 .debug_str     0x0000792c      0x10d build/obj/injector_central.o
                               0x1e40 (size before relaxing)
 .debug_str     0x00007a39       0x35 build/obj/ignition_central.o
                                0xc1d (size before relaxing)
 .debug_str     0x00007a6e       0xc4 build/obj/flash_main.o
                               0x1c69 (size before relaxing)
 .debug_str     0x00007b32      0x1e3 build/obj/malfunction_indicator.o
                                0x966 (size before relaxing)
 .debug_str     0x00007d15       0x4f build/obj/error_handling.o
                                0x3d9 (size before relaxing)
 .debug_str     0x00007d64      0x19d build/obj/map_averaging.o
                               0x10b6 (size before relaxing)
 .debug_str     0x00007f01       0xf1 build/obj/fuel_math.o
                                0xfec (size before relaxing)
 .debug_str     0x00007ff2       0x63 build/obj/advance_map.o
                                0xce1 (size before relaxing)
 .debug_str     0x00008055      0x1b2 build/obj/engine_configuration.o
                               0x1e3e (size before relaxing)
 .debug_str     0x00008207       0xb1 build/obj/signal_executor.o
                                0x806 (size before relaxing)
 .debug_str     0x000082b8      0x117 build/obj/interpolation.o
                                0x3cc (size before relaxing)
 .debug_str     0x000083cf       0x89 build/obj/malfunction_central.o
                                0x314 (size before relaxing)
 .debug_str     0x00008458       0x74 build/obj/event_registry.o
                                0x754 (size before relaxing)
 .debug_str     0x000084cc       0xe5 build/obj/idle_controller.o
                                0x179 (size before relaxing)
 .debug_str     0x000085b1       0xb4 build/obj/wave_chart.o
                                0x3af (size before relaxing)
 .debug_str     0x00008665      0x119 build/obj/nmea.o
                                0x364 (size before relaxing)
 .debug_str     0x0000877e       0x30 build/obj/algo.o
                                0x21e (size before relaxing)
 .debug_str     0x000087ae       0xdd build/obj/tps.o
                                0xdce (size before relaxing)
 .debug_str     0x0000888b       0x3f build/obj/allsensors.o
                                0x173 (size before relaxing)
 .debug_str     0x000088ca       0x1c build/obj/maf.o
                                0xcb0 (size before relaxing)
 .debug_str     0x000088e6       0x54 build/obj/map.o
                                0xd13 (size before relaxing)
 .debug_str     0x0000893a       0x1c build/obj/ego.o
                                0xcc9 (size before relaxing)
 .debug_str     0x00008956       0x20 build/obj/voltage.o
                                0xcbe (size before relaxing)
 .debug_str     0x00008976      0x1e7 build/obj/thermistors.o
                               0x17b4 (size before relaxing)
 .debug_str     0x00008b5d      0x742 build/obj/stm32_dma.o
                                0x9ab (size before relaxing)
 .debug_str     0x0000929f       0x9d build/obj/hal_lld.o
                                0x354 (size before relaxing)
 .debug_str     0x0000933c       0xca build/obj/adc_lld.o
                                0xd06 (size before relaxing)
 .debug_str     0x00009406      0x14e build/obj/can_lld.o
                                0xdc0 (size before relaxing)
 .debug_str     0x00009554       0x4d build/obj/pal_lld.o
                                0x3a7 (size before relaxing)
 .debug_str     0x000095a1      0x127 build/obj/i2c_lld.o
                                0xe60 (size before relaxing)
 .debug_str     0x000096c8      0x1fa build/obj/usb_lld.o
                               0x149e (size before relaxing)
 .debug_str     0x000098c2       0x7d build/obj/rtc_lld.o
                                0x3ab (size before relaxing)
 .debug_str     0x0000993f       0x93 build/obj/spi_lld.o
                                0x73f (size before relaxing)
 .debug_str     0x000099d2       0x83 build/obj/icu_lld.o
                                0xa0a (size before relaxing)
 .debug_str     0x00009a55       0x67 build/obj/pwm_lld.o
                                0x997 (size before relaxing)
 .debug_str     0x00009abc       0x89 build/obj/serial_lld.o
                                0xbd0 (size before relaxing)
 .debug_str     0x00009b45       0x60 build/obj/board.o
                                0x6dc (size before relaxing)
 .debug_str     0x00009ba5       0xc4 build/obj/fatfs_diskio.o
                                0x849 (size before relaxing)
 .debug_str     0x00009c69       0x50 build/obj/fatfs_syscall.o
                                0x365 (size before relaxing)
 .debug_str     0x00009cb9      0x1c3 build/obj/ff.o
                                0x617 (size before relaxing)
 .debug_str     0x00009e7c       0x3a build/obj/ccsbcs.o
                                0x162 (size before relaxing)
 .debug_str     0x00009eb6      0x16a build/obj/trigger_central.o
                               0x1914 (size before relaxing)
 .debug_str     0x0000a020       0xc0 build/obj/trigger_mazda.o
                               0x14ac (size before relaxing)
 .debug_str     0x0000a0e0       0x43 build/obj/trigger_structure.o
                                0x329 (size before relaxing)
 .debug_str     0x0000a123      0x142 build/obj/rpm_calculator.o
                               0x10c6 (size before relaxing)
 .debug_str     0x0000a265       0x8e build/obj/pwm_generator_logic.o
                                0x9e6 (size before relaxing)
 .debug_str     0x0000a2f3       0xc7 build/obj/signal_temp.o
                                0x8db (size before relaxing)
 .debug_str     0x0000a3ba       0x4d build/obj/signal_executor_sleep.o
                                0x76d (size before relaxing)

.comment        0x00000000       0x70
 .comment       0x00000000       0x70 build/obj/crt0.o
                                 0x71 (size before relaxing)
 .comment       0x00000000       0x71 build/obj/vectors.o
 .comment       0x00000000       0x71 build/obj/chcore.o
 .comment       0x00000000       0x71 build/obj/chcore_v7m.o
 .comment       0x00000000       0x71 build/obj/nvic.o
 .comment       0x00000000       0x71 build/obj/chsys.o
 .comment       0x00000000       0x71 build/obj/chdebug.o
 .comment       0x00000000       0x71 build/obj/chvt.o
 .comment       0x00000000       0x71 build/obj/chschd.o
 .comment       0x00000000       0x71 build/obj/chthreads.o
 .comment       0x00000000       0x71 build/obj/chdynamic.o
 .comment       0x00000000       0x71 build/obj/chregistry.o
 .comment       0x00000000       0x71 build/obj/chsem.o
 .comment       0x00000000       0x71 build/obj/chmtx.o
 .comment       0x00000000       0x71 build/obj/chevents.o
 .comment       0x00000000       0x71 build/obj/chqueues.o
 .comment       0x00000000       0x71 build/obj/chmemcore.o
 .comment       0x00000000       0x71 build/obj/chheap.o
 .comment       0x00000000       0x71 build/obj/chmempools.o
 .comment       0x00000000       0x71 build/obj/chprintf.o
 .comment       0x00000000       0x71 build/obj/memstreams.o
 .comment       0x00000000       0x71 build/obj/chrtclib.o
 .comment       0x00000000       0x71 build/obj/listener_array.o
 .comment       0x00000000       0x71 build/obj/crc.o
 .comment       0x00000000       0x71 build/obj/histogram.o
 .comment       0x00000000       0x71 build/obj/eficonsole_logic.o
 .comment       0x00000000       0x71 build/obj/dodge_neon.o
 .comment       0x00000000       0x71 build/obj/ford_fiesta.o
 .comment       0x00000000       0x71 build/obj/ford_1995_inline_6.o
 .comment       0x00000000       0x71 build/obj/nissan_primera.o
 .comment       0x00000000       0x71 build/obj/mazda_miata_nb.o
 .comment       0x00000000       0x71 build/obj/honda_accord.o
 .comment       0x00000000       0x71 build/obj/GY6_139QMB.o
 .comment       0x00000000       0x71 build/obj/mazda_323.o
 .comment       0x00000000       0x71 build/obj/eficonsole.o
 .comment       0x00000000       0x71 build/obj/console_io.o
 .comment       0x00000000       0x71 build/obj/status_loop.o
 .comment       0x00000000       0x71 build/obj/tunerstudio_algo.o
 .comment       0x00000000       0x71 build/obj/tunerstudio.o
 .comment       0x00000000       0x71 build/obj/datalogging.o
 .comment       0x00000000       0x71 build/obj/rfiutil.o
 .comment       0x00000000       0x71 build/obj/hal.o
 .comment       0x00000000       0x71 build/obj/adc.o
 .comment       0x00000000       0x71 build/obj/can.o
 .comment       0x00000000       0x71 build/obj/i2c.o
 .comment       0x00000000       0x71 build/obj/icu.o
 .comment       0x00000000       0x71 build/obj/mmc_spi.o
 .comment       0x00000000       0x71 build/obj/mmcsd.o
 .comment       0x00000000       0x71 build/obj/pwm.o
 .comment       0x00000000       0x71 build/obj/rtc.o
 .comment       0x00000000       0x71 build/obj/serial.o
 .comment       0x00000000       0x71 build/obj/serial_usb.o
 .comment       0x00000000       0x71 build/obj/spi.o
 .comment       0x00000000       0x71 build/obj/usb.o
 .comment       0x00000000       0x71 build/obj/analog_chart.o
 .comment       0x00000000       0x71 build/obj/wave_analyzer.o
 .comment       0x00000000       0x71 build/obj/hardware.o
 .comment       0x00000000       0x71 build/obj/adc_inputs.o
 .comment       0x00000000       0x71 build/obj/trigger_input.o
 .comment       0x00000000       0x71 build/obj/pin_repository.o
 .comment       0x00000000       0x71 build/obj/io_pins.o
 .comment       0x00000000       0x71 build/obj/lcd_HD44780.o
 .comment       0x00000000       0x71 build/obj/usbcfg.o
 .comment       0x00000000       0x71 build/obj/usbconsole.o
 .comment       0x00000000       0x71 build/obj/flash.o
 .comment       0x00000000       0x71 build/obj/rtc_helper.o
 .comment       0x00000000       0x71 build/obj/mmc_card.o
 .comment       0x00000000       0x71 build/obj/neo6m.o
 .comment       0x00000000       0x71 build/obj/gpio_helper.o
 .comment       0x00000000       0x71 build/obj/board_test.o
 .comment       0x00000000       0x71 build/obj/wave_analyzer_hw.o
 .comment       0x00000000       0x71 build/obj/pwm_generator.o
 .comment       0x00000000       0x71 build/obj/injector_central.o
 .comment       0x00000000       0x71 build/obj/ignition_central.o
 .comment       0x00000000       0x71 build/obj/flash_main.o
 .comment       0x00000000       0x71 build/obj/malfunction_indicator.o
 .comment       0x00000000       0x71 build/obj/error_handling.o
 .comment       0x00000000       0x71 build/obj/map_averaging.o
 .comment       0x00000000       0x71 build/obj/fuel_math.o
 .comment       0x00000000       0x71 build/obj/advance_map.o
 .comment       0x00000000       0x71 build/obj/engine_configuration.o
 .comment       0x00000000       0x71 build/obj/signal_executor.o
 .comment       0x00000000       0x71 build/obj/interpolation.o
 .comment       0x00000000       0x71 build/obj/malfunction_central.o
 .comment       0x00000000       0x71 build/obj/event_registry.o
 .comment       0x00000000       0x71 build/obj/idle_controller.o
 .comment       0x00000000       0x71 build/obj/wave_chart.o
 .comment       0x00000000       0x71 build/obj/nmea.o
 .comment       0x00000000       0x71 build/obj/algo.o
 .comment       0x00000000       0x71 build/obj/tps.o
 .comment       0x00000000       0x71 build/obj/allsensors.o
 .comment       0x00000000       0x71 build/obj/maf.o
 .comment       0x00000000       0x71 build/obj/map.o
 .comment       0x00000000       0x71 build/obj/ego.o
 .comment       0x00000000       0x71 build/obj/voltage.o
 .comment       0x00000000       0x71 build/obj/thermistors.o
 .comment       0x00000000       0x71 build/obj/stm32_dma.o
 .comment       0x00000000       0x71 build/obj/hal_lld.o
 .comment       0x00000000       0x71 build/obj/adc_lld.o
 .comment       0x00000000       0x71 build/obj/can_lld.o
 .comment       0x00000000       0x71 build/obj/pal_lld.o
 .comment       0x00000000       0x71 build/obj/i2c_lld.o
 .comment       0x00000000       0x71 build/obj/usb_lld.o
 .comment       0x00000000       0x71 build/obj/rtc_lld.o
 .comment       0x00000000       0x71 build/obj/spi_lld.o
 .comment       0x00000000       0x71 build/obj/icu_lld.o
 .comment       0x00000000       0x71 build/obj/pwm_lld.o
 .comment       0x00000000       0x71 build/obj/serial_lld.o
 .comment       0x00000000       0x71 build/obj/board.o
 .comment       0x00000000       0x71 build/obj/fatfs_diskio.o
 .comment       0x00000000       0x71 build/obj/fatfs_syscall.o
 .comment       0x00000000       0x71 build/obj/ff.o
 .comment       0x00000000       0x71 build/obj/ccsbcs.o
 .comment       0x00000000       0x71 build/obj/trigger_central.o
 .comment       0x00000000       0x71 build/obj/trigger_mazda.o
 .comment       0x00000000       0x71 build/obj/trigger_structure.o
 .comment       0x00000000       0x71 build/obj/rpm_calculator.o
 .comment       0x00000000       0x71 build/obj/pwm_generator_logic.o
 .comment       0x00000000       0x71 build/obj/signal_temp.o
 .comment       0x00000000       0x71 build/obj/signal_executor_sleep.o
 .comment       0x00000000       0x71 build/obj/trigger_decoder.o
 .comment       0x00000000       0x71 build/obj/trigger_chrysler.o
 .comment       0x00000000       0x71 build/obj/trigger_gm.o
 .comment       0x00000000       0x71 build/obj/main_trigger_callback.o
 .comment       0x00000000       0x71 build/obj/trigger_emulator.o
 .comment       0x00000000       0x71 build/obj/rfi_perftest.o
 .comment       0x00000000       0x71 build/obj/engine_emulator.o
 .comment       0x00000000       0x71 build/obj/OutputSignalArray.o
 .comment       0x00000000       0x71 build/obj/trigger_emulator_algo.o
 .comment       0x00000000       0x71 build/obj/ford_aspire.o
 .comment       0x00000000       0x71 build/obj/MiniCooperR50.o
 .comment       0x00000000       0x71 build/obj/ford_escort_gt.o
 .comment       0x00000000       0x71 build/obj/citroenBerlingoTU3JP.o
 .comment       0x00000000       0x71 build/obj/saturn_ion.o
 .comment       0x00000000       0x71 build/obj/settings.o
 .comment       0x00000000       0x71 build/obj/engine_controller.o
 .comment       0x00000000       0x71 build/obj/cyclic_buffer.o
 .comment       0x00000000       0x71 build/obj/efilib.o
 .comment       0x00000000       0x71 build/obj/efilib2.o
 .comment       0x00000000       0x71 build/obj/LocalVersionHolder.o
 .comment       0x00000000       0x71 build/obj/engine_math.o
 .comment       0x00000000       0x71 build/obj/rusefi.o
 .comment       0x00000000       0x71 build/obj/main.o

.ARM.attributes
                0x00000000       0x39
 .ARM.attributes
                0x00000000       0x39 build/obj/crt0.o
 .ARM.attributes
                0x00000039       0x39 build/obj/vectors.o
 .ARM.attributes
                0x00000072       0x39 build/obj/chcore.o
 .ARM.attributes
                0x000000ab       0x39 build/obj/chcore_v7m.o
 .ARM.attributes
                0x000000e4       0x39 build/obj/nvic.o
 .ARM.attributes
                0x0000011d       0x39 build/obj/chsys.o
 .ARM.attributes
                0x00000156       0x39 build/obj/chdebug.o
 .ARM.attributes
                0x0000018f       0x39 build/obj/chvt.o
 .ARM.attributes
                0x000001c8       0x39 build/obj/chschd.o
 .ARM.attributes
                0x00000201       0x39 build/obj/chthreads.o
 .ARM.attributes
                0x0000023a       0x39 build/obj/chdynamic.o
 .ARM.attributes
                0x00000273       0x39 build/obj/chregistry.o
 .ARM.attributes
                0x000002ac       0x39 build/obj/chsem.o
 .ARM.attributes
                0x000002e5       0x39 build/obj/chmtx.o
 .ARM.attributes
                0x0000031e       0x39 build/obj/chevents.o
 .ARM.attributes
                0x00000357       0x39 build/obj/chqueues.o
 .ARM.attributes
                0x00000390       0x39 build/obj/chmemcore.o
 .ARM.attributes
                0x000003c9       0x39 build/obj/chheap.o
 .ARM.attributes
                0x00000402       0x39 build/obj/chmempools.o
 .ARM.attributes
                0x0000043b       0x39 build/obj/chprintf.o
 .ARM.attributes
                0x00000474       0x39 build/obj/memstreams.o
 .ARM.attributes
                0x000004ad       0x39 build/obj/chrtclib.o
 .ARM.attributes
                0x000004e6       0x39 build/obj/listener_array.o
 .ARM.attributes
                0x0000051f       0x39 build/obj/crc.o
 .ARM.attributes
                0x00000558       0x39 build/obj/histogram.o
 .ARM.attributes
                0x00000591       0x39 build/obj/eficonsole_logic.o
 .ARM.attributes
                0x000005ca       0x39 build/obj/dodge_neon.o
 .ARM.attributes
                0x00000603       0x39 build/obj/ford_fiesta.o
 .ARM.attributes
                0x0000063c       0x39 build/obj/ford_1995_inline_6.o
 .ARM.attributes
                0x00000675       0x39 build/obj/nissan_primera.o
 .ARM.attributes
                0x000006ae       0x39 build/obj/mazda_miata_nb.o
 .ARM.attributes
                0x000006e7       0x39 build/obj/honda_accord.o
 .ARM.attributes
                0x00000720       0x39 build/obj/GY6_139QMB.o
 .ARM.attributes
                0x00000759       0x39 build/obj/mazda_323.o
 .ARM.attributes
                0x00000792       0x39 build/obj/eficonsole.o
 .ARM.attributes
                0x000007cb       0x39 build/obj/console_io.o
 .ARM.attributes
                0x00000804       0x39 build/obj/status_loop.o
 .ARM.attributes
                0x0000083d       0x39 build/obj/tunerstudio_algo.o
 .ARM.attributes
                0x00000876       0x39 build/obj/tunerstudio.o
 .ARM.attributes
                0x000008af       0x39 build/obj/datalogging.o
 .ARM.attributes
                0x000008e8       0x39 build/obj/rfiutil.o
 .ARM.attributes
                0x00000921       0x39 build/obj/hal.o
 .ARM.attributes
                0x0000095a       0x39 build/obj/adc.o
 .ARM.attributes
                0x00000993       0x39 build/obj/can.o
 .ARM.attributes
                0x000009cc       0x39 build/obj/i2c.o
 .ARM.attributes
                0x00000a05       0x39 build/obj/icu.o
 .ARM.attributes
                0x00000a3e       0x39 build/obj/mmc_spi.o
 .ARM.attributes
                0x00000a77       0x39 build/obj/mmcsd.o
 .ARM.attributes
                0x00000ab0       0x39 build/obj/pwm.o
 .ARM.attributes
                0x00000ae9       0x39 build/obj/rtc.o
 .ARM.attributes
                0x00000b22       0x39 build/obj/serial.o
 .ARM.attributes
                0x00000b5b       0x39 build/obj/serial_usb.o
 .ARM.attributes
                0x00000b94       0x39 build/obj/spi.o
 .ARM.attributes
                0x00000bcd       0x39 build/obj/usb.o
 .ARM.attributes
                0x00000c06       0x39 build/obj/analog_chart.o
 .ARM.attributes
                0x00000c3f       0x39 build/obj/wave_analyzer.o
 .ARM.attributes
                0x00000c78       0x39 build/obj/hardware.o
 .ARM.attributes
                0x00000cb1       0x39 build/obj/adc_inputs.o
 .ARM.attributes
                0x00000cea       0x39 build/obj/trigger_input.o
 .ARM.attributes
                0x00000d23       0x39 build/obj/pin_repository.o
 .ARM.attributes
                0x00000d5c       0x39 build/obj/io_pins.o
 .ARM.attributes
                0x00000d95       0x39 build/obj/lcd_HD44780.o
 .ARM.attributes
                0x00000dce       0x39 build/obj/usbcfg.o
 .ARM.attributes
                0x00000e07       0x39 build/obj/usbconsole.o
 .ARM.attributes
                0x00000e40       0x39 build/obj/flash.o
 .ARM.attributes
                0x00000e79       0x39 build/obj/rtc_helper.o
 .ARM.attributes
                0x00000eb2       0x39 build/obj/mmc_card.o
 .ARM.attributes
                0x00000eeb       0x39 build/obj/neo6m.o
 .ARM.attributes
                0x00000f24       0x39 build/obj/gpio_helper.o
 .ARM.attributes
                0x00000f5d       0x39 build/obj/board_test.o
 .ARM.attributes
                0x00000f96       0x39 build/obj/wave_analyzer_hw.o
 .ARM.attributes
                0x00000fcf       0x39 build/obj/pwm_generator.o
 .ARM.attributes
                0x00001008       0x39 build/obj/injector_central.o
 .ARM.attributes
                0x00001041       0x39 build/obj/ignition_central.o
 .ARM.attributes
                0x0000107a       0x39 build/obj/flash_main.o
 .ARM.attributes
                0x000010b3       0x39 build/obj/malfunction_indicator.o
 .ARM.attributes
                0x000010ec       0x39 build/obj/error_handling.o
 .ARM.attributes
                0x00001125       0x39 build/obj/map_averaging.o
 .ARM.attributes
                0x0000115e       0x39 build/obj/fuel_math.o
 .ARM.attributes
                0x00001197       0x39 build/obj/advance_map.o
 .ARM.attributes
                0x000011d0       0x39 build/obj/engine_configuration.o
 .ARM.attributes
                0x00001209       0x39 build/obj/signal_executor.o
 .ARM.attributes
                0x00001242       0x39 build/obj/interpolation.o
 .ARM.attributes
                0x0000127b       0x39 build/obj/malfunction_central.o
 .ARM.attributes
                0x000012b4       0x39 build/obj/event_registry.o
 .ARM.attributes
                0x000012ed       0x39 build/obj/idle_controller.o
 .ARM.attributes
                0x00001326       0x39 build/obj/wave_chart.o
 .ARM.attributes
                0x0000135f       0x39 build/obj/nmea.o
 .ARM.attributes
                0x00001398       0x39 build/obj/algo.o
 .ARM.attributes
                0x000013d1       0x39 build/obj/tps.o
 .ARM.attributes
                0x0000140a       0x39 build/obj/allsensors.o
 .ARM.attributes
                0x00001443       0x39 build/obj/maf.o
 .ARM.attributes
                0x0000147c       0x39 build/obj/map.o
 .ARM.attributes
                0x000014b5       0x39 build/obj/ego.o
 .ARM.attributes
                0x000014ee       0x39 build/obj/voltage.o
 .ARM.attributes
                0x00001527       0x39 build/obj/thermistors.o
 .ARM.attributes
                0x00001560       0x39 build/obj/stm32_dma.o
 .ARM.attributes
                0x00001599       0x39 build/obj/hal_lld.o
 .ARM.attributes
                0x000015d2       0x39 build/obj/adc_lld.o
 .ARM.attributes
                0x0000160b       0x39 build/obj/can_lld.o
 .ARM.attributes
                0x00001644       0x39 build/obj/pal_lld.o
 .ARM.attributes
                0x0000167d       0x39 build/obj/i2c_lld.o
 .ARM.attributes
                0x000016b6       0x39 build/obj/usb_lld.o
 .ARM.attributes
                0x000016ef       0x39 build/obj/rtc_lld.o
 .ARM.attributes
                0x00001728       0x39 build/obj/spi_lld.o
 .ARM.attributes
                0x00001761       0x39 build/obj/icu_lld.o
 .ARM.attributes
                0x0000179a       0x39 build/obj/pwm_lld.o
 .ARM.attributes
                0x000017d3       0x39 build/obj/serial_lld.o
 .ARM.attributes
                0x0000180c       0x39 build/obj/board.o
 .ARM.attributes
                0x00001845       0x39 build/obj/fatfs_diskio.o
 .ARM.attributes
                0x0000187e       0x39 build/obj/fatfs_syscall.o
 .ARM.attributes
                0x000018b7       0x39 build/obj/ff.o
 .ARM.attributes
                0x000018f0       0x39 build/obj/ccsbcs.o
 .ARM.attributes
                0x00001929       0x39 build/obj/trigger_central.o
 .ARM.attributes
                0x00001962       0x39 build/obj/trigger_mazda.o
 .ARM.attributes
                0x0000199b       0x39 build/obj/trigger_structure.o
 .ARM.attributes
                0x000019d4       0x39 build/obj/rpm_calculator.o
 .ARM.attributes
                0x00001a0d       0x39 build/obj/pwm_generator_logic.o
 .ARM.attributes
                0x00001a46       0x39 build/obj/signal_temp.o
 .ARM.attributes
                0x00001a7f       0x39 build/obj/signal_executor_sleep.o
 .ARM.attributes
                0x00001ab8       0x33 build/obj/trigger_decoder.o
 .ARM.attributes
                0x00001aeb       0x33 build/obj/trigger_chrysler.o
 .ARM.attributes
                0x00001b1e       0x33 build/obj/trigger_gm.o
 .ARM.attributes
                0x00001b51       0x33 build/obj/main_trigger_callback.o
 .ARM.attributes
                0x00001b84       0x33 build/obj/trigger_emulator.o
 .ARM.attributes
                0x00001bb7       0x33 build/obj/rfi_perftest.o
 .ARM.attributes
                0x00001bea       0x33 build/obj/engine_emulator.o
 .ARM.attributes
                0x00001c1d       0x33 build/obj/OutputSignalArray.o
 .ARM.attributes
                0x00001c50       0x33 build/obj/trigger_emulator_algo.o
 .ARM.attributes
                0x00001c83       0x33 build/obj/ford_aspire.o
 .ARM.attributes
                0x00001cb6       0x33 build/obj/MiniCooperR50.o
 .ARM.attributes
                0x00001ce9       0x33 build/obj/ford_escort_gt.o
 .ARM.attributes
                0x00001d1c       0x33 build/obj/citroenBerlingoTU3JP.o
 .ARM.attributes
                0x00001d4f       0x33 build/obj/saturn_ion.o
 .ARM.attributes
                0x00001d82       0x33 build/obj/settings.o
 .ARM.attributes
                0x00001db5       0x33 build/obj/engine_controller.o
 .ARM.attributes
                0x00001de8       0x33 build/obj/cyclic_buffer.o
 .ARM.attributes
                0x00001e1b       0x33 build/obj/efilib.o
 .ARM.attributes
                0x00001e4e       0x33 build/obj/efilib2.o
 .ARM.attributes
                0x00001e81       0x33 build/obj/LocalVersionHolder.o
 .ARM.attributes
                0x00001eb4       0x33 build/obj/engine_math.o
 .ARM.attributes
                0x00001ee7       0x33 build/obj/rusefi.o
 .ARM.attributes
                0x00001f1a       0x33 build/obj/main.o
 .ARM.attributes
                0x00001f4d       0x2e c:/chibistudio/tools/gnu tools arm embedded/4.7 2013q2/bin/../lib/gcc/arm-none-eabi/4.7.4/../../../../arm-none-eabi/lib/armv7e-m\libm.a(lib_a-s_fpclassify.o)
 .ARM.attributes
                0x00001f7b       0x2e c:/chibistudio/tools/gnu tools arm embedded/4.7 2013q2/bin/../lib/gcc/arm-none-eabi/4.7.4/../../../../arm-none-eabi/lib/armv7e-m\libm.a(lib_a-s_modf.o)
 .ARM.attributes
                0x00001fa9       0x2e c:/chibistudio/tools/gnu tools arm embedded/4.7 2013q2/bin/../lib/gcc/arm-none-eabi/4.7.4/../../../../arm-none-eabi/lib/armv7e-m\libm.a(lib_a-s_round.o)
 .ARM.attributes
                0x00001fd7       0x2e c:/chibistudio/tools/gnu tools arm embedded/4.7 2013q2/bin/../lib/gcc/arm-none-eabi/4.7.4/../../../../arm-none-eabi/lib/armv7e-m\libm.a(lib_a-w_log.o)
 .ARM.attributes
                0x00002005       0x2e c:/chibistudio/tools/gnu tools arm embedded/4.7 2013q2/bin/../lib/gcc/arm-none-eabi/4.7.4/../../../../arm-none-eabi/lib/armv7e-m\libm.a(lib_a-w_pow.o)
 .ARM.attributes
                0x00002033       0x2e c:/chibistudio/tools/gnu tools arm embedded/4.7 2013q2/bin/../lib/gcc/arm-none-eabi/4.7.4/../../../../arm-none-eabi/lib/armv7e-m\libm.a(lib_a-e_log.o)
 .ARM.attributes
                0x00002061       0x2e c:/chibistudio/tools/gnu tools arm embedded/4.7 2013q2/bin/../lib/gcc/arm-none-eabi/4.7.4/../../../../arm-none-eabi/lib/armv7e-m\libm.a(lib_a-e_pow.o)
 .ARM.attributes
                0x0000208f       0x2e c:/chibistudio/tools/gnu tools arm embedded/4.7 2013q2/bin/../lib/gcc/arm-none-eabi/4.7.4/../../../../arm-none-eabi/lib/armv7e-m\libm.a(lib_a-e_sqrt.o)
 .ARM.attributes
                0x000020bd       0x2e c:/chibistudio/tools/gnu tools arm embedded/4.7 2013q2/bin/../lib/gcc/arm-none-eabi/4.7.4/../../../../arm-none-eabi/lib/armv7e-m\libm.a(lib_a-s_fabs.o)
 .ARM.attributes
                0x000020eb       0x2e c:/chibistudio/tools/gnu tools arm embedded/4.7 2013q2/bin/../lib/gcc/arm-none-eabi/4.7.4/../../../../arm-none-eabi/lib/armv7e-m\libm.a(lib_a-s_finite.o)
 .ARM.attributes
                0x00002119       0x2e c:/chibistudio/tools/gnu tools arm embedded/4.7 2013q2/bin/../lib/gcc/arm-none-eabi/4.7.4/../../../../arm-none-eabi/lib/armv7e-m\libm.a(lib_a-s_lib_ver.o)
 .ARM.attributes
                0x00002147       0x2e c:/chibistudio/tools/gnu tools arm embedded/4.7 2013q2/bin/../lib/gcc/arm-none-eabi/4.7.4/../../../../arm-none-eabi/lib/armv7e-m\libm.a(lib_a-s_matherr.o)
 .ARM.attributes
                0x00002175       0x2e c:/chibistudio/tools/gnu tools arm embedded/4.7 2013q2/bin/../lib/gcc/arm-none-eabi/4.7.4/../../../../arm-none-eabi/lib/armv7e-m\libm.a(lib_a-s_nan.o)
 .ARM.attributes
                0x000021a3       0x2e c:/chibistudio/tools/gnu tools arm embedded/4.7 2013q2/bin/../lib/gcc/arm-none-eabi/4.7.4/../../../../arm-none-eabi/lib/armv7e-m\libm.a(lib_a-s_rint.o)
 .ARM.attributes
                0x000021d1       0x2e c:/chibistudio/tools/gnu tools arm embedded/4.7 2013q2/bin/../lib/gcc/arm-none-eabi/4.7.4/../../../../arm-none-eabi/lib/armv7e-m\libm.a(lib_a-s_scalbn.o)
 .ARM.attributes
                0x000021ff       0x2e c:/chibistudio/tools/gnu tools arm embedded/4.7 2013q2/bin/../lib/gcc/arm-none-eabi/4.7.4/../../../../arm-none-eabi/lib/armv7e-m\libm.a(lib_a-s_copysign.o)
 .ARM.attributes
                0x0000222d       0x1e c:/chibistudio/tools/gnu tools arm embedded/4.7 2013q2/bin/../lib/gcc/arm-none-eabi/4.7.4/armv7e-m\libgcc.a(_arm_addsubdf3.o)
 .ARM.attributes
                0x0000224b       0x1e c:/chibistudio/tools/gnu tools arm embedded/4.7 2013q2/bin/../lib/gcc/arm-none-eabi/4.7.4/armv7e-m\libgcc.a(_arm_muldivdf3.o)
 .ARM.attributes
                0x00002269       0x1e c:/chibistudio/tools/gnu tools arm embedded/4.7 2013q2/bin/../lib/gcc/arm-none-eabi/4.7.4/armv7e-m\libgcc.a(_arm_cmpdf2.o)
 .ARM.attributes
                0x00002287       0x1e c:/chibistudio/tools/gnu tools arm embedded/4.7 2013q2/bin/../lib/gcc/arm-none-eabi/4.7.4/armv7e-m\libgcc.a(_arm_fixdfsi.o)
 .ARM.attributes
                0x000022a5       0x1e c:/chibistudio/tools/gnu tools arm embedded/4.7 2013q2/bin/../lib/gcc/arm-none-eabi/4.7.4/armv7e-m\libgcc.a(_arm_truncdfsf2.o)
 .ARM.attributes
                0x000022c3       0x1e c:/chibistudio/tools/gnu tools arm embedded/4.7 2013q2/bin/../lib/gcc/arm-none-eabi/4.7.4/armv7e-m\libgcc.a(_arm_addsubsf3.o)
 .ARM.attributes
                0x000022e1       0x1e c:/chibistudio/tools/gnu tools arm embedded/4.7 2013q2/bin/../lib/gcc/arm-none-eabi/4.7.4/armv7e-m\libgcc.a(_arm_muldivsf3.o)
 .ARM.attributes
                0x000022ff       0x1e c:/chibistudio/tools/gnu tools arm embedded/4.7 2013q2/bin/../lib/gcc/arm-none-eabi/4.7.4/armv7e-m\libgcc.a(_arm_cmpsf2.o)
 .ARM.attributes
                0x0000231d       0x1e c:/chibistudio/tools/gnu tools arm embedded/4.7 2013q2/bin/../lib/gcc/arm-none-eabi/4.7.4/armv7e-m\libgcc.a(_arm_fixsfsi.o)
 .ARM.attributes
                0x0000233b       0x1e c:/chibistudio/tools/gnu tools arm embedded/4.7 2013q2/bin/../lib/gcc/arm-none-eabi/4.7.4/armv7e-m\libgcc.a(_aeabi_ldivmod.o)
 .ARM.attributes
                0x00002359       0x1e c:/chibistudio/tools/gnu tools arm embedded/4.7 2013q2/bin/../lib/gcc/arm-none-eabi/4.7.4/armv7e-m\libgcc.a(_aeabi_uldivmod.o)
 .ARM.attributes
                0x00002377       0x2e c:/chibistudio/tools/gnu tools arm embedded/4.7 2013q2/bin/../lib/gcc/arm-none-eabi/4.7.4/armv7e-m\libgcc.a(_fixsfdi.o)
 .ARM.attributes
                0x000023a5       0x2e c:/chibistudio/tools/gnu tools arm embedded/4.7 2013q2/bin/../lib/gcc/arm-none-eabi/4.7.4/armv7e-m\libgcc.a(_fixdfdi.o)
 .ARM.attributes
                0x000023d3       0x2e c:/chibistudio/tools/gnu tools arm embedded/4.7 2013q2/bin/../lib/gcc/arm-none-eabi/4.7.4/armv7e-m\libgcc.a(_fixunssfdi.o)
 .ARM.attributes
                0x00002401       0x2e c:/chibistudio/tools/gnu tools arm embedded/4.7 2013q2/bin/../lib/gcc/arm-none-eabi/4.7.4/armv7e-m\libgcc.a(_fixunsdfdi.o)
 .ARM.attributes
                0x0000242f       0x2e c:/chibistudio/tools/gnu tools arm embedded/4.7 2013q2/bin/../lib/gcc/arm-none-eabi/4.7.4/armv7e-m\libgcc.a(bpabi.o)
 .ARM.attributes
                0x0000245d       0x1e c:/chibistudio/tools/gnu tools arm embedded/4.7 2013q2/bin/../lib/gcc/arm-none-eabi/4.7.4/armv7e-m\libgcc.a(_dvmd_tls.o)
 .ARM.attributes
                0x0000247b       0x1e c:/chibistudio/tools/gnu tools arm embedded/4.7 2013q2/bin/../lib/gcc/arm-none-eabi/4.7.4/armv7e-m\libgcc.a(_arm_fixunsdfsi.o)
 .ARM.attributes
                0x00002499       0x2e c:/chibistudio/tools/gnu tools arm embedded/4.7 2013q2/bin/../lib/gcc/arm-none-eabi/4.7.4/armv7e-m\libgcc.a(_divdi3.o)
 .ARM.attributes
                0x000024c7       0x2e c:/chibistudio/tools/gnu tools arm embedded/4.7 2013q2/bin/../lib/gcc/arm-none-eabi/4.7.4/armv7e-m\libgcc.a(_udivdi3.o)
 .ARM.attributes
                0x000024f5       0x2e c:/chibistudio/tools/gnu tools arm embedded/4.7 2013q2/bin/../lib/gcc/arm-none-eabi/4.7.4/../../../../arm-none-eabi/lib/armv7e-m\libc.a(lib_a-errno.o)
 .ARM.attributes
                0x00002523       0x2e c:/chibistudio/tools/gnu tools arm embedded/4.7 2013q2/bin/../lib/gcc/arm-none-eabi/4.7.4/../../../../arm-none-eabi/lib/armv7e-m\libc.a(lib_a-impure.o)
 .ARM.attributes
                0x00002551       0x2e c:/chibistudio/tools/gnu tools arm embedded/4.7 2013q2/bin/../lib/gcc/arm-none-eabi/4.7.4/../../../../arm-none-eabi/lib/armv7e-m\libc.a(lib_a-lcltime_r.o)
 .ARM.attributes
                0x0000257f       0x2e c:/chibistudio/tools/gnu tools arm embedded/4.7 2013q2/bin/../lib/gcc/arm-none-eabi/4.7.4/../../../../arm-none-eabi/lib/armv7e-m\libc.a(lib_a-memcpy.o)
 .ARM.attributes
                0x000025ad       0x2e c:/chibistudio/tools/gnu tools arm embedded/4.7 2013q2/bin/../lib/gcc/arm-none-eabi/4.7.4/../../../../arm-none-eabi/lib/armv7e-m\libc.a(lib_a-memset.o)
 .ARM.attributes
                0x000025db       0x2e c:/chibistudio/tools/gnu tools arm embedded/4.7 2013q2/bin/../lib/gcc/arm-none-eabi/4.7.4/../../../../arm-none-eabi/lib/armv7e-m\libc.a(lib_a-mktime.o)
 .ARM.attributes
                0x00002609       0x2e c:/chibistudio/tools/gnu tools arm embedded/4.7 2013q2/bin/../lib/gcc/arm-none-eabi/4.7.4/../../../../arm-none-eabi/lib/armv7e-m\libc.a(lib_a-mktm_r.o)
 .ARM.attributes
                0x00002637       0x2e c:/chibistudio/tools/gnu tools arm embedded/4.7 2013q2/bin/../lib/gcc/arm-none-eabi/4.7.4/../../../../arm-none-eabi/lib/armv7e-m\libc.a(lib_a-strcat.o)
 .ARM.attributes
                0x00002665       0x2e c:/chibistudio/tools/gnu tools arm embedded/4.7 2013q2/bin/../lib/gcc/arm-none-eabi/4.7.4/../../../../arm-none-eabi/lib/armv7e-m\libc.a(lib_a-strchr.o)
 .ARM.attributes
                0x00002693       0x2e c:/chibistudio/tools/gnu tools arm embedded/4.7 2013q2/bin/../lib/gcc/arm-none-eabi/4.7.4/../../../../arm-none-eabi/lib/armv7e-m\libc.a(lib_a-strcpy.o)
 .ARM.attributes
                0x000026c1       0x2e c:/chibistudio/tools/gnu tools arm embedded/4.7 2013q2/bin/../lib/gcc/arm-none-eabi/4.7.4/../../../../arm-none-eabi/lib/armv7e-m\libc.a(lib_a-strlen.o)
 .ARM.attributes
                0x000026ef       0x2e c:/chibistudio/tools/gnu tools arm embedded/4.7 2013q2/bin/../lib/gcc/arm-none-eabi/4.7.4/../../../../arm-none-eabi/lib/armv7e-m\libc.a(lib_a-strncmp.o)
 .ARM.attributes
                0x0000271d       0x2e c:/chibistudio/tools/gnu tools arm embedded/4.7 2013q2/bin/../lib/gcc/arm-none-eabi/4.7.4/../../../../arm-none-eabi/lib/armv7e-m\libc.a(lib_a-strrchr.o)
 .ARM.attributes
                0x0000274b       0x2e c:/chibistudio/tools/gnu tools arm embedded/4.7 2013q2/bin/../lib/gcc/arm-none-eabi/4.7.4/../../../../arm-none-eabi/lib/armv7e-m\libc.a(lib_a-strstr.o)
 .ARM.attributes
                0x00002779       0x2e c:/chibistudio/tools/gnu tools arm embedded/4.7 2013q2/bin/../lib/gcc/arm-none-eabi/4.7.4/../../../../arm-none-eabi/lib/armv7e-m\libc.a(lib_a-tzlock.o)
 .ARM.attributes
                0x000027a7       0x2e c:/chibistudio/tools/gnu tools arm embedded/4.7 2013q2/bin/../lib/gcc/arm-none-eabi/4.7.4/../../../../arm-none-eabi/lib/armv7e-m\libc.a(lib_a-tzvars.o)
 .ARM.attributes
                0x000027d5       0x2e c:/chibistudio/tools/gnu tools arm embedded/4.7 2013q2/bin/../lib/gcc/arm-none-eabi/4.7.4/../../../../arm-none-eabi/lib/armv7e-m\libc.a(lib_a-div.o)
 .ARM.attributes
                0x00002803       0x2e c:/chibistudio/tools/gnu tools arm embedded/4.7 2013q2/bin/../lib/gcc/arm-none-eabi/4.7.4/../../../../arm-none-eabi/lib/armv7e-m\libc.a(lib_a-gettzinfo.o)
 .ARM.attributes
                0x00002831       0x2e c:/chibistudio/tools/gnu tools arm embedded/4.7 2013q2/bin/../lib/gcc/arm-none-eabi/4.7.4/../../../../arm-none-eabi/lib/armv7e-m\libc.a(lib_a-memchr.o)
 .ARM.attributes
                0x0000285f       0x2e c:/chibistudio/tools/gnu tools arm embedded/4.7 2013q2/bin/../lib/gcc/arm-none-eabi/4.7.4/../../../../arm-none-eabi/lib/armv7e-m\libc.a(lib_a-memcmp.o)

.debug_frame    0x00000000     0x73d8
 .debug_frame   0x00000000       0x50 build/obj/crt0.o
 .debug_frame   0x00000050       0x20 build/obj/vectors.o
 .debug_frame   0x00000070       0x20 build/obj/chcore.o
 .debug_frame   0x00000090       0xa4 build/obj/chcore_v7m.o
 .debug_frame   0x00000134       0x60 build/obj/nvic.o
 .debug_frame   0x00000194       0x68 build/obj/chsys.o
 .debug_frame   0x000001fc      0x160 build/obj/chdebug.o
 .debug_frame   0x0000035c       0x64 build/obj/chvt.o
 .debug_frame   0x000003c0      0x128 build/obj/chschd.o
 .debug_frame   0x000004e8      0x180 build/obj/chthreads.o
 .debug_frame   0x00000668       0x9c build/obj/chdynamic.o
 .debug_frame   0x00000704       0x4c build/obj/chregistry.o
 .debug_frame   0x00000750      0x174 build/obj/chsem.o
 .debug_frame   0x000008c4      0x100 build/obj/chmtx.o
 .debug_frame   0x000009c4      0x238 build/obj/chevents.o
 .debug_frame   0x00000bfc      0x184 build/obj/chqueues.o
 .debug_frame   0x00000d80       0x68 build/obj/chmemcore.o
 .debug_frame   0x00000de8       0xb4 build/obj/chheap.o
 .debug_frame   0x00000e9c       0xd0 build/obj/chmempools.o
 .debug_frame   0x00000f6c       0xac build/obj/chprintf.o
 .debug_frame   0x00001018       0x88 build/obj/memstreams.o
 .debug_frame   0x000010a0       0xd4 build/obj/chrtclib.o
 .debug_frame   0x00001174       0xc8 build/obj/listener_array.o
 .debug_frame   0x0000123c       0x28 build/obj/crc.o
 .debug_frame   0x00001264       0xf0 build/obj/histogram.o
 .debug_frame   0x00001354      0x208 build/obj/eficonsole_logic.o
 .debug_frame   0x0000155c       0x38 build/obj/dodge_neon.o
 .debug_frame   0x00001594       0x20 build/obj/ford_fiesta.o
 .debug_frame   0x000015b4       0x48 build/obj/ford_1995_inline_6.o
 .debug_frame   0x000015fc       0x20 build/obj/nissan_primera.o
 .debug_frame   0x0000161c       0x3c build/obj/mazda_miata_nb.o
 .debug_frame   0x00001658       0x20 build/obj/honda_accord.o
 .debug_frame   0x00001678       0x20 build/obj/GY6_139QMB.o
 .debug_frame   0x00001698       0x20 build/obj/mazda_323.o
 .debug_frame   0x000016b8       0xf4 build/obj/eficonsole.o
 .debug_frame   0x000017ac      0x100 build/obj/console_io.o
 .debug_frame   0x000018ac      0x1ec build/obj/status_loop.o
 .debug_frame   0x00001a98       0x80 build/obj/tunerstudio_algo.o
 .debug_frame   0x00001b18      0x160 build/obj/tunerstudio.o
 .debug_frame   0x00001c78      0x2f4 build/obj/datalogging.o
 .debug_frame   0x00001f6c       0xdc build/obj/rfiutil.o
 .debug_frame   0x00002048       0x5c build/obj/hal.o
 .debug_frame   0x000020a4      0x16c build/obj/adc.o
 .debug_frame   0x00002210      0x120 build/obj/can.o
 .debug_frame   0x00002330      0x12c build/obj/i2c.o
 .debug_frame   0x0000245c       0xb0 build/obj/icu.o
 .debug_frame   0x0000250c      0x318 build/obj/mmc_spi.o
 .debug_frame   0x00002824       0x50 build/obj/mmcsd.o
 .debug_frame   0x00002874       0xd8 build/obj/pwm.o
 .debug_frame   0x0000294c       0xc8 build/obj/rtc.o
 .debug_frame   0x00002a14      0x1a8 build/obj/serial.o
 .debug_frame   0x00002bbc      0x22c build/obj/serial_usb.o
 .debug_frame   0x00002de8      0x204 build/obj/spi.o
 .debug_frame   0x00002fec      0x228 build/obj/usb.o
 .debug_frame   0x00003214       0x50 build/obj/analog_chart.o
 .debug_frame   0x00003264      0x248 build/obj/wave_analyzer.o
 .debug_frame   0x000034ac       0x88 build/obj/hardware.o
 .debug_frame   0x00003534      0x1f8 build/obj/adc_inputs.o
 .debug_frame   0x0000372c       0x70 build/obj/trigger_input.o
 .debug_frame   0x0000379c      0x124 build/obj/pin_repository.o
 .debug_frame   0x000038c0      0x1c8 build/obj/io_pins.o
 .debug_frame   0x00003a88      0x158 build/obj/lcd_HD44780.o
 .debug_frame   0x00003be0       0x3c build/obj/usbcfg.o
 .debug_frame   0x00003c1c       0x5c build/obj/usbconsole.o
 .debug_frame   0x00003c78      0x160 build/obj/flash.o
 .debug_frame   0x00003dd8       0xd4 build/obj/rtc_helper.o
 .debug_frame   0x00003eac      0x108 build/obj/mmc_card.o
 .debug_frame   0x00003fb4       0x88 build/obj/neo6m.o
 .debug_frame   0x0000403c       0x78 build/obj/gpio_helper.o
 .debug_frame   0x000040b4       0x20 build/obj/board_test.o
 .debug_frame   0x000040d4       0xa8 build/obj/wave_analyzer_hw.o
 .debug_frame   0x0000417c       0x94 build/obj/pwm_generator.o
 .debug_frame   0x00004210      0x164 build/obj/injector_central.o
 .debug_frame   0x00004374       0x2c build/obj/ignition_central.o
 .debug_frame   0x000043a0       0xa8 build/obj/flash_main.o
 .debug_frame   0x00004448       0x78 build/obj/malfunction_indicator.o
 .debug_frame   0x000044c0       0x54 build/obj/error_handling.o
 .debug_frame   0x00004514       0xfc build/obj/map_averaging.o
 .debug_frame   0x00004610      0x140 build/obj/fuel_math.o
 .debug_frame   0x00004750       0x64 build/obj/advance_map.o
 .debug_frame   0x000047b4       0xf0 build/obj/engine_configuration.o
 .debug_frame   0x000048a4       0xcc build/obj/signal_executor.o
 .debug_frame   0x00004970       0xe8 build/obj/interpolation.o
 .debug_frame   0x00004a58       0xc0 build/obj/malfunction_central.o
 .debug_frame   0x00004b18       0x68 build/obj/event_registry.o
 .debug_frame   0x00004b80       0xdc build/obj/idle_controller.o
 .debug_frame   0x00004c5c      0x10c build/obj/wave_chart.o
 .debug_frame   0x00004d68      0x170 build/obj/nmea.o
 .debug_frame   0x00004ed8       0x2c build/obj/algo.o
 .debug_frame   0x00004f04       0xc0 build/obj/tps.o
 .debug_frame   0x00004fc4       0x2c build/obj/allsensors.o
 .debug_frame   0x00004ff0       0x2c build/obj/maf.o
 .debug_frame   0x0000501c       0x80 build/obj/map.o
 .debug_frame   0x0000509c       0x34 build/obj/ego.o
 .debug_frame   0x000050d0       0x48 build/obj/voltage.o
 .debug_frame   0x00005118      0x20c build/obj/thermistors.o
 .debug_frame   0x00005324      0x228 build/obj/stm32_dma.o
 .debug_frame   0x0000554c       0x3c build/obj/hal_lld.o
 .debug_frame   0x00005588      0x110 build/obj/adc_lld.o
 .debug_frame   0x00005698      0x274 build/obj/can_lld.o
 .debug_frame   0x0000590c       0x68 build/obj/pal_lld.o
 .debug_frame   0x00005974      0x178 build/obj/i2c_lld.o
 .debug_frame   0x00005aec      0x30c build/obj/usb_lld.o
 .debug_frame   0x00005df8       0xc0 build/obj/rtc_lld.o
 .debug_frame   0x00005eb8      0x110 build/obj/spi_lld.o
 .debug_frame   0x00005fc8      0x134 build/obj/icu_lld.o
 .debug_frame   0x000060fc       0xe4 build/obj/pwm_lld.o
 .debug_frame   0x000061e0      0x114 build/obj/serial_lld.o
 .debug_frame   0x000062f4       0x5c build/obj/board.o
 .debug_frame   0x00006350       0xc4 build/obj/fatfs_diskio.o
 .debug_frame   0x00006414       0x48 build/obj/fatfs_syscall.o
 .debug_frame   0x0000645c      0x3ac build/obj/ff.o
 .debug_frame   0x00006808       0x30 build/obj/ccsbcs.o
 .debug_frame   0x00006838       0x9c build/obj/trigger_central.o
 .debug_frame   0x000068d4       0x4c build/obj/trigger_mazda.o
 .debug_frame   0x00006920       0x84 build/obj/trigger_structure.o
 .debug_frame   0x000069a4      0x150 build/obj/rpm_calculator.o
 .debug_frame   0x00006af4       0x94 build/obj/pwm_generator_logic.o
 .debug_frame   0x00006b88       0x58 build/obj/signal_temp.o
 .debug_frame   0x00006be0       0x54 build/obj/signal_executor_sleep.o
 .debug_frame   0x00006c34       0x20 c:/chibistudio/tools/gnu tools arm embedded/4.7 2013q2/bin/../lib/gcc/arm-none-eabi/4.7.4/../../../../arm-none-eabi/lib/armv7e-m\libm.a(lib_a-s_fpclassify.o)
 .debug_frame   0x00006c54       0x34 c:/chibistudio/tools/gnu tools arm embedded/4.7 2013q2/bin/../lib/gcc/arm-none-eabi/4.7.4/../../../../arm-none-eabi/lib/armv7e-m\libm.a(lib_a-s_modf.o)
 .debug_frame   0x00006c88       0x30 c:/chibistudio/tools/gnu tools arm embedded/4.7 2013q2/bin/../lib/gcc/arm-none-eabi/4.7.4/../../../../arm-none-eabi/lib/armv7e-m\libm.a(lib_a-s_round.o)
 .debug_frame   0x00006cb8       0x34 c:/chibistudio/tools/gnu tools arm embedded/4.7 2013q2/bin/../lib/gcc/arm-none-eabi/4.7.4/../../../../arm-none-eabi/lib/armv7e-m\libm.a(lib_a-w_log.o)
 .debug_frame   0x00006cec       0x38 c:/chibistudio/tools/gnu tools arm embedded/4.7 2013q2/bin/../lib/gcc/arm-none-eabi/4.7.4/../../../../arm-none-eabi/lib/armv7e-m\libm.a(lib_a-w_pow.o)
 .debug_frame   0x00006d24       0x38 c:/chibistudio/tools/gnu tools arm embedded/4.7 2013q2/bin/../lib/gcc/arm-none-eabi/4.7.4/../../../../arm-none-eabi/lib/armv7e-m\libm.a(lib_a-e_log.o)
 .debug_frame   0x00006d5c       0x38 c:/chibistudio/tools/gnu tools arm embedded/4.7 2013q2/bin/../lib/gcc/arm-none-eabi/4.7.4/../../../../arm-none-eabi/lib/armv7e-m\libm.a(lib_a-e_pow.o)
 .debug_frame   0x00006d94       0x34 c:/chibistudio/tools/gnu tools arm embedded/4.7 2013q2/bin/../lib/gcc/arm-none-eabi/4.7.4/../../../../arm-none-eabi/lib/armv7e-m\libm.a(lib_a-e_sqrt.o)
 .debug_frame   0x00006dc8       0x20 c:/chibistudio/tools/gnu tools arm embedded/4.7 2013q2/bin/../lib/gcc/arm-none-eabi/4.7.4/../../../../arm-none-eabi/lib/armv7e-m\libm.a(lib_a-s_fabs.o)
 .debug_frame   0x00006de8       0x20 c:/chibistudio/tools/gnu tools arm embedded/4.7 2013q2/bin/../lib/gcc/arm-none-eabi/4.7.4/../../../../arm-none-eabi/lib/armv7e-m\libm.a(lib_a-s_finite.o)
 .debug_frame   0x00006e08       0x20 c:/chibistudio/tools/gnu tools arm embedded/4.7 2013q2/bin/../lib/gcc/arm-none-eabi/4.7.4/../../../../arm-none-eabi/lib/armv7e-m\libm.a(lib_a-s_matherr.o)
 .debug_frame   0x00006e28       0x20 c:/chibistudio/tools/gnu tools arm embedded/4.7 2013q2/bin/../lib/gcc/arm-none-eabi/4.7.4/../../../../arm-none-eabi/lib/armv7e-m\libm.a(lib_a-s_nan.o)
 .debug_frame   0x00006e48       0x34 c:/chibistudio/tools/gnu tools arm embedded/4.7 2013q2/bin/../lib/gcc/arm-none-eabi/4.7.4/../../../../arm-none-eabi/lib/armv7e-m\libm.a(lib_a-s_rint.o)
 .debug_frame   0x00006e7c       0x30 c:/chibistudio/tools/gnu tools arm embedded/4.7 2013q2/bin/../lib/gcc/arm-none-eabi/4.7.4/../../../../arm-none-eabi/lib/armv7e-m\libm.a(lib_a-s_scalbn.o)
 .debug_frame   0x00006eac       0x28 c:/chibistudio/tools/gnu tools arm embedded/4.7 2013q2/bin/../lib/gcc/arm-none-eabi/4.7.4/../../../../arm-none-eabi/lib/armv7e-m\libm.a(lib_a-s_copysign.o)
 .debug_frame   0x00006ed4       0x28 c:/chibistudio/tools/gnu tools arm embedded/4.7 2013q2/bin/../lib/gcc/arm-none-eabi/4.7.4/armv7e-m\libgcc.a(_fixsfdi.o)
 .debug_frame   0x00006efc       0x2c c:/chibistudio/tools/gnu tools arm embedded/4.7 2013q2/bin/../lib/gcc/arm-none-eabi/4.7.4/armv7e-m\libgcc.a(_fixdfdi.o)
 .debug_frame   0x00006f28       0x2c c:/chibistudio/tools/gnu tools arm embedded/4.7 2013q2/bin/../lib/gcc/arm-none-eabi/4.7.4/armv7e-m\libgcc.a(_fixunssfdi.o)
 .debug_frame   0x00006f54       0x2c c:/chibistudio/tools/gnu tools arm embedded/4.7 2013q2/bin/../lib/gcc/arm-none-eabi/4.7.4/armv7e-m\libgcc.a(_fixunsdfdi.o)
 .debug_frame   0x00006f80       0x50 c:/chibistudio/tools/gnu tools arm embedded/4.7 2013q2/bin/../lib/gcc/arm-none-eabi/4.7.4/armv7e-m\libgcc.a(bpabi.o)
 .debug_frame   0x00006fd0       0x34 c:/chibistudio/tools/gnu tools arm embedded/4.7 2013q2/bin/../lib/gcc/arm-none-eabi/4.7.4/armv7e-m\libgcc.a(_divdi3.o)
 .debug_frame   0x00007004       0x34 c:/chibistudio/tools/gnu tools arm embedded/4.7 2013q2/bin/../lib/gcc/arm-none-eabi/4.7.4/armv7e-m\libgcc.a(_udivdi3.o)
 .debug_frame   0x00007038       0x20 c:/chibistudio/tools/gnu tools arm embedded/4.7 2013q2/bin/../lib/gcc/arm-none-eabi/4.7.4/../../../../arm-none-eabi/lib/armv7e-m\libc.a(lib_a-errno.o)
 .debug_frame   0x00007058       0x20 c:/chibistudio/tools/gnu tools arm embedded/4.7 2013q2/bin/../lib/gcc/arm-none-eabi/4.7.4/../../../../arm-none-eabi/lib/armv7e-m\libc.a(lib_a-lcltime_r.o)
 .debug_frame   0x00007078       0x30 c:/chibistudio/tools/gnu tools arm embedded/4.7 2013q2/bin/../lib/gcc/arm-none-eabi/4.7.4/../../../../arm-none-eabi/lib/armv7e-m\libc.a(lib_a-memcpy.o)
 .debug_frame   0x000070a8       0x2c c:/chibistudio/tools/gnu tools arm embedded/4.7 2013q2/bin/../lib/gcc/arm-none-eabi/4.7.4/../../../../arm-none-eabi/lib/armv7e-m\libc.a(lib_a-memset.o)
 .debug_frame   0x000070d4       0x5c c:/chibistudio/tools/gnu tools arm embedded/4.7 2013q2/bin/../lib/gcc/arm-none-eabi/4.7.4/../../../../arm-none-eabi/lib/armv7e-m\libc.a(lib_a-mktime.o)
 .debug_frame   0x00007130       0x60 c:/chibistudio/tools/gnu tools arm embedded/4.7 2013q2/bin/../lib/gcc/arm-none-eabi/4.7.4/../../../../arm-none-eabi/lib/armv7e-m\libc.a(lib_a-mktm_r.o)
 .debug_frame   0x00007190       0x2c c:/chibistudio/tools/gnu tools arm embedded/4.7 2013q2/bin/../lib/gcc/arm-none-eabi/4.7.4/../../../../arm-none-eabi/lib/armv7e-m\libc.a(lib_a-strcat.o)
 .debug_frame   0x000071bc       0x2c c:/chibistudio/tools/gnu tools arm embedded/4.7 2013q2/bin/../lib/gcc/arm-none-eabi/4.7.4/../../../../arm-none-eabi/lib/armv7e-m\libc.a(lib_a-strchr.o)
 .debug_frame   0x000071e8       0x20 c:/chibistudio/tools/gnu tools arm embedded/4.7 2013q2/bin/../lib/gcc/arm-none-eabi/4.7.4/../../../../arm-none-eabi/lib/armv7e-m\libc.a(lib_a-strcpy.o)
 .debug_frame   0x00007208       0x20 c:/chibistudio/tools/gnu tools arm embedded/4.7 2013q2/bin/../lib/gcc/arm-none-eabi/4.7.4/../../../../arm-none-eabi/lib/armv7e-m\libc.a(lib_a-strlen.o)
 .debug_frame   0x00007228       0x2c c:/chibistudio/tools/gnu tools arm embedded/4.7 2013q2/bin/../lib/gcc/arm-none-eabi/4.7.4/../../../../arm-none-eabi/lib/armv7e-m\libc.a(lib_a-strncmp.o)
 .debug_frame   0x00007254       0x2c c:/chibistudio/tools/gnu tools arm embedded/4.7 2013q2/bin/../lib/gcc/arm-none-eabi/4.7.4/../../../../arm-none-eabi/lib/armv7e-m\libc.a(lib_a-strrchr.o)
 .debug_frame   0x00007280       0x88 c:/chibistudio/tools/gnu tools arm embedded/4.7 2013q2/bin/../lib/gcc/arm-none-eabi/4.7.4/../../../../arm-none-eabi/lib/armv7e-m\libc.a(lib_a-strstr.o)
 .debug_frame   0x00007308       0x30 c:/chibistudio/tools/gnu tools arm embedded/4.7 2013q2/bin/../lib/gcc/arm-none-eabi/4.7.4/../../../../arm-none-eabi/lib/armv7e-m\libc.a(lib_a-tzlock.o)
 .debug_frame   0x00007338       0x28 c:/chibistudio/tools/gnu tools arm embedded/4.7 2013q2/bin/../lib/gcc/arm-none-eabi/4.7.4/../../../../arm-none-eabi/lib/armv7e-m\libc.a(lib_a-div.o)
 .debug_frame   0x00007360       0x20 c:/chibistudio/tools/gnu tools arm embedded/4.7 2013q2/bin/../lib/gcc/arm-none-eabi/4.7.4/../../../../arm-none-eabi/lib/armv7e-m\libc.a(lib_a-gettzinfo.o)
 .debug_frame   0x00007380       0x2c c:/chibistudio/tools/gnu tools arm embedded/4.7 2013q2/bin/../lib/gcc/arm-none-eabi/4.7.4/../../../../arm-none-eabi/lib/armv7e-m\libc.a(lib_a-memchr.o)
 .debug_frame   0x000073ac       0x2c c:/chibistudio/tools/gnu tools arm embedded/4.7 2013q2/bin/../lib/gcc/arm-none-eabi/4.7.4/../../../../arm-none-eabi/lib/armv7e-m\libc.a(lib_a-memcmp.o)

Cross Reference Table

Symbol                                            File
ADCD1                                             build/obj/adc_lld.o
                                                  build/obj/adc_inputs.o
ADCD2                                             build/obj/adc_lld.o
                                                  build/obj/adc_inputs.o
BusFaultVector                                    build/obj/vectors.o
BusFaultVector()                                  build/obj/rusefi.o
CAND1                                             build/obj/can_lld.o
CAND2                                             build/obj/can_lld.o
DebugMonitorVector                                build/obj/vectors.o
DebugMonitorVector()                              build/obj/rusefi.o
HardFaultVector                                   build/obj/vectors.o
HardFaultVector()                                 build/obj/rusefi.o
I2CD1                                             build/obj/i2c_lld.o
                                                  build/obj/lcd_HD44780.o
                                                  build/obj/hardware.o
ICUD1                                             build/obj/icu_lld.o
                                                  build/obj/wave_analyzer_hw.o
                                                  build/obj/wave_analyzer.o
ICUD2                                             build/obj/icu_lld.o
                                                  build/obj/wave_analyzer_hw.o
                                                  build/obj/trigger_input.o
ICUD3                                             build/obj/icu_lld.o
                                                  build/obj/wave_analyzer_hw.o
                                                  build/obj/trigger_input.o
ICUD9                                             build/obj/icu_lld.o
                                                  build/obj/wave_analyzer_hw.o
                                                  build/obj/wave_analyzer.o
LocalVersionHolder::LocalVersionHolder()          build/obj/LocalVersionHolder.o
LocalVersionHolder::LocalVersionHolder()          build/obj/LocalVersionHolder.o
                                                  build/obj/trigger_emulator_algo.o
                                                  build/obj/main_trigger_callback.o
LocalVersionHolder::getVersion()                  build/obj/LocalVersionHolder.o
                                                  build/obj/trigger_emulator_algo.o
LocalVersionHolder::isOld()                       build/obj/LocalVersionHolder.o
                                                  build/obj/trigger_emulator_algo.o
                                                  build/obj/main_trigger_callback.o
MMCD1                                             build/obj/mmc_card.o
                                                  build/obj/fatfs_diskio.o
MemManageVector                                   build/obj/vectors.o
NMIVector                                         build/obj/vectors.o
OutputSignalList::OutputSignalList()              build/obj/OutputSignalArray.o
                                                  build/obj/engine_math.o
OutputSignalList::OutputSignalList()              build/obj/OutputSignalArray.o
OutputSignalList::add(io_pin_e)                   build/obj/OutputSignalArray.o
                                                  build/obj/engine_math.o
OutputSignalList::clear()                         build/obj/OutputSignalArray.o
                                                  build/obj/engine_math.o
OutputSignalList::getSize()                       build/obj/OutputSignalArray.o
Overflow64Counter::Overflow64Counter()            build/obj/efilib2.o
Overflow64Counter::Overflow64Counter()            build/obj/efilib2.o
                                                  build/obj/engine_controller.o
Overflow64Counter::get()                          build/obj/efilib2.o
                                                  build/obj/engine_controller.o
                                                  build/obj/rfi_perftest.o
Overflow64Counter::offer(unsigned long)           build/obj/efilib2.o
                                                  build/obj/engine_controller.o
PIN_USED                                          build/obj/pin_repository.o
PWMD4                                             build/obj/pwm_lld.o
                                                  build/obj/adc_inputs.o
PWMD8                                             build/obj/pwm_lld.o
                                                  build/obj/adc_inputs.o
PendSVVector                                      build/obj/vectors.o
RTCD1                                             build/obj/rtc_lld.o
                                                  build/obj/rfi_perftest.o
                                                  build/obj/fatfs_diskio.o
                                                  build/obj/rtc_helper.o
ResetHandler                                      build/obj/crt0.o
                                                  build/obj/vectors.o
SD1                                               build/obj/serial_lld.o
                                                  build/obj/neo6m.o
SD2                                               build/obj/serial_lld.o
                                                  build/obj/usbconsole.o
SD3                                               build/obj/serial_lld.o
                                                  build/obj/tunerstudio.o
SDU1                                              build/obj/usbcfg.o
                                                  build/obj/usbconsole.o
                                                  build/obj/console_io.o
                                                  build/obj/eficonsole.o
SPID3                                             build/obj/spi_lld.o
                                                  build/obj/mmc_card.o
                                                  build/obj/poten.o
SVCallVector                                      build/obj/chcore_v7m.o
                                                  build/obj/vectors.o
SysTickVector                                     build/obj/chcore_v7m.o
                                                  build/obj/vectors.o
TIM_Init                                          build/obj/signal_temp.o
                                                  build/obj/hardware.o
USBD1                                             build/obj/usb_lld.o
                                                  build/obj/usbcfg.o
UsageFaultVector                                  build/obj/vectors.o
UsageFaultVector()                                build/obj/rusefi.o
Vector100                                         build/obj/vectors.o
Vector104                                         build/obj/vectors.o
Vector108                                         build/obj/signal_temp.o
                                                  build/obj/vectors.o
Vector10C                                         build/obj/vectors.o
Vector110                                         build/obj/vectors.o
Vector114                                         build/obj/vectors.o
Vector118                                         build/obj/vectors.o
Vector11C                                         build/obj/vectors.o
Vector120                                         build/obj/stm32_dma.o
                                                  build/obj/vectors.o
Vector124                                         build/obj/stm32_dma.o
                                                  build/obj/vectors.o
Vector128                                         build/obj/stm32_dma.o
                                                  build/obj/vectors.o
Vector12C                                         build/obj/stm32_dma.o
                                                  build/obj/vectors.o
Vector130                                         build/obj/stm32_dma.o
                                                  build/obj/vectors.o
Vector134                                         build/obj/vectors.o
Vector138                                         build/obj/vectors.o
Vector13C                                         build/obj/can_lld.o
                                                  build/obj/vectors.o
Vector140                                         build/obj/can_lld.o
                                                  build/obj/vectors.o
Vector144                                         build/obj/can_lld.o
                                                  build/obj/vectors.o
Vector148                                         build/obj/can_lld.o
                                                  build/obj/vectors.o
Vector14C                                         build/obj/usb_lld.o
                                                  build/obj/vectors.o
Vector150                                         build/obj/stm32_dma.o
                                                  build/obj/vectors.o
Vector154                                         build/obj/stm32_dma.o
                                                  build/obj/vectors.o
Vector158                                         build/obj/stm32_dma.o
                                                  build/obj/vectors.o
Vector15C                                         build/obj/vectors.o
Vector160                                         build/obj/vectors.o
Vector164                                         build/obj/vectors.o
Vector168                                         build/obj/vectors.o
Vector16C                                         build/obj/vectors.o
Vector170                                         build/obj/vectors.o
Vector174                                         build/obj/vectors.o
Vector178                                         build/obj/vectors.o
Vector17C                                         build/obj/vectors.o
Vector180                                         build/obj/vectors.o
Vector184                                         build/obj/vectors.o
Vector1C                                          build/obj/vectors.o
Vector20                                          build/obj/vectors.o
Vector24                                          build/obj/vectors.o
Vector28                                          build/obj/vectors.o
Vector34                                          build/obj/vectors.o
Vector40                                          build/obj/vectors.o
Vector44                                          build/obj/vectors.o
Vector48                                          build/obj/vectors.o
Vector4C                                          build/obj/vectors.o
Vector50                                          build/obj/vectors.o
Vector54                                          build/obj/vectors.o
Vector58                                          build/obj/vectors.o
Vector5C                                          build/obj/vectors.o
Vector60                                          build/obj/vectors.o
Vector64                                          build/obj/vectors.o
Vector68                                          build/obj/vectors.o
Vector6C                                          build/obj/stm32_dma.o
                                                  build/obj/vectors.o
Vector70                                          build/obj/stm32_dma.o
                                                  build/obj/vectors.o
Vector74                                          build/obj/stm32_dma.o
                                                  build/obj/vectors.o
Vector78                                          build/obj/stm32_dma.o
                                                  build/obj/vectors.o
Vector7C                                          build/obj/stm32_dma.o
                                                  build/obj/vectors.o
Vector80                                          build/obj/stm32_dma.o
                                                  build/obj/vectors.o
Vector84                                          build/obj/stm32_dma.o
                                                  build/obj/vectors.o
Vector88                                          build/obj/adc_lld.o
                                                  build/obj/vectors.o
Vector8C                                          build/obj/can_lld.o
                                                  build/obj/vectors.o
Vector90                                          build/obj/can_lld.o
                                                  build/obj/vectors.o
Vector94                                          build/obj/can_lld.o
                                                  build/obj/vectors.o
Vector98                                          build/obj/can_lld.o
                                                  build/obj/vectors.o
Vector9C                                          build/obj/vectors.o
VectorA0                                          build/obj/icu_lld.o
                                                  build/obj/vectors.o
VectorA4                                          build/obj/icu_lld.o
                                                  build/obj/vectors.o
VectorA8                                          build/obj/vectors.o
VectorAC                                          build/obj/icu_lld.o
                                                  build/obj/vectors.o
VectorB0                                          build/obj/icu_lld.o
                                                  build/obj/vectors.o
VectorB4                                          build/obj/icu_lld.o
                                                  build/obj/vectors.o
VectorB8                                          build/obj/pwm_lld.o
                                                  build/obj/vectors.o
VectorBC                                          build/obj/i2c_lld.o
                                                  build/obj/vectors.o
VectorC0                                          build/obj/i2c_lld.o
                                                  build/obj/vectors.o
VectorC4                                          build/obj/vectors.o
VectorC8                                          build/obj/vectors.o
VectorCC                                          build/obj/vectors.o
VectorD0                                          build/obj/vectors.o
VectorD4                                          build/obj/serial_lld.o
                                                  build/obj/vectors.o
VectorD8                                          build/obj/serial_lld.o
                                                  build/obj/vectors.o
VectorDC                                          build/obj/serial_lld.o
                                                  build/obj/vectors.o
VectorE0                                          build/obj/vectors.o
VectorE4                                          build/obj/vectors.o
VectorE8                                          build/obj/vectors.o
VectorEC                                          build/obj/vectors.o
VectorF0                                          build/obj/pwm_lld.o
                                                  build/obj/vectors.o
VectorF4                                          build/obj/vectors.o
VectorF8                                          build/obj/pwm_lld.o
                                                  build/obj/vectors.o
VectorFC                                          build/obj/stm32_dma.o
                                                  build/obj/vectors.o
__adddf3                                          c:/chibistudio/tools/gnu tools arm embedded/4.7 2013q2/bin/../lib/gcc/arm-none-eabi/4.7.4/armv7e-m\libgcc.a(_arm_addsubdf3.o)
__addsf3                                          c:/chibistudio/tools/gnu tools arm embedded/4.7 2013q2/bin/../lib/gcc/arm-none-eabi/4.7.4/armv7e-m\libgcc.a(_arm_addsubsf3.o)
__aeabi_cdcmpeq                                   c:/chibistudio/tools/gnu tools arm embedded/4.7 2013q2/bin/../lib/gcc/arm-none-eabi/4.7.4/armv7e-m\libgcc.a(_arm_cmpdf2.o)
__aeabi_cdcmple                                   c:/chibistudio/tools/gnu tools arm embedded/4.7 2013q2/bin/../lib/gcc/arm-none-eabi/4.7.4/armv7e-m\libgcc.a(_arm_cmpdf2.o)
__aeabi_cdrcmple                                  c:/chibistudio/tools/gnu tools arm embedded/4.7 2013q2/bin/../lib/gcc/arm-none-eabi/4.7.4/armv7e-m\libgcc.a(_arm_cmpdf2.o)
__aeabi_cfcmpeq                                   c:/chibistudio/tools/gnu tools arm embedded/4.7 2013q2/bin/../lib/gcc/arm-none-eabi/4.7.4/armv7e-m\libgcc.a(_arm_cmpsf2.o)
__aeabi_cfcmple                                   c:/chibistudio/tools/gnu tools arm embedded/4.7 2013q2/bin/../lib/gcc/arm-none-eabi/4.7.4/armv7e-m\libgcc.a(_arm_cmpsf2.o)
__aeabi_cfrcmple                                  c:/chibistudio/tools/gnu tools arm embedded/4.7 2013q2/bin/../lib/gcc/arm-none-eabi/4.7.4/armv7e-m\libgcc.a(_arm_cmpsf2.o)
__aeabi_d2f                                       c:/chibistudio/tools/gnu tools arm embedded/4.7 2013q2/bin/../lib/gcc/arm-none-eabi/4.7.4/armv7e-m\libgcc.a(_arm_truncdfsf2.o)
                                                  build/obj/engine_math.o
                                                  build/obj/engine_controller.o
                                                  build/obj/settings.o
                                                  build/obj/engine_emulator.o
                                                  build/obj/rfi_perftest.o
                                                  build/obj/trigger_decoder.o
                                                  build/obj/thermistors.o
                                                  build/obj/nmea.o
                                                  build/obj/chprintf.o
__aeabi_d2iz                                      c:/chibistudio/tools/gnu tools arm embedded/4.7 2013q2/bin/../lib/gcc/arm-none-eabi/4.7.4/armv7e-m\libgcc.a(_arm_fixdfsi.o)
                                                  build/obj/nmea.o
                                                  build/obj/malfunction_indicator.o
                                                  build/obj/chprintf.o
__aeabi_d2lz                                      c:/chibistudio/tools/gnu tools arm embedded/4.7 2013q2/bin/../lib/gcc/arm-none-eabi/4.7.4/armv7e-m\libgcc.a(_fixdfdi.o)
                                                  build/obj/histogram.o
__aeabi_d2uiz                                     c:/chibistudio/tools/gnu tools arm embedded/4.7 2013q2/bin/../lib/gcc/arm-none-eabi/4.7.4/armv7e-m\libgcc.a(_arm_fixunsdfsi.o)
                                                  c:/chibistudio/tools/gnu tools arm embedded/4.7 2013q2/bin/../lib/gcc/arm-none-eabi/4.7.4/armv7e-m\libgcc.a(_fixunsdfdi.o)
                                                  c:/chibistudio/tools/gnu tools arm embedded/4.7 2013q2/bin/../lib/gcc/arm-none-eabi/4.7.4/armv7e-m\libgcc.a(_fixunssfdi.o)
__aeabi_d2ulz                                     c:/chibistudio/tools/gnu tools arm embedded/4.7 2013q2/bin/../lib/gcc/arm-none-eabi/4.7.4/armv7e-m\libgcc.a(_fixunsdfdi.o)
                                                  c:/chibistudio/tools/gnu tools arm embedded/4.7 2013q2/bin/../lib/gcc/arm-none-eabi/4.7.4/armv7e-m\libgcc.a(_fixdfdi.o)
__aeabi_dadd                                      c:/chibistudio/tools/gnu tools arm embedded/4.7 2013q2/bin/../lib/gcc/arm-none-eabi/4.7.4/armv7e-m\libgcc.a(_arm_addsubdf3.o)
                                                  c:/chibistudio/tools/gnu tools arm embedded/4.7 2013q2/bin/../lib/gcc/arm-none-eabi/4.7.4/../../../../arm-none-eabi/lib/armv7e-m\libm.a(lib_a-s_scalbn.o)
                                                  c:/chibistudio/tools/gnu tools arm embedded/4.7 2013q2/bin/../lib/gcc/arm-none-eabi/4.7.4/../../../../arm-none-eabi/lib/armv7e-m\libm.a(lib_a-s_rint.o)
                                                  c:/chibistudio/tools/gnu tools arm embedded/4.7 2013q2/bin/../lib/gcc/arm-none-eabi/4.7.4/../../../../arm-none-eabi/lib/armv7e-m\libm.a(lib_a-e_sqrt.o)
                                                  c:/chibistudio/tools/gnu tools arm embedded/4.7 2013q2/bin/../lib/gcc/arm-none-eabi/4.7.4/../../../../arm-none-eabi/lib/armv7e-m\libm.a(lib_a-e_pow.o)
                                                  c:/chibistudio/tools/gnu tools arm embedded/4.7 2013q2/bin/../lib/gcc/arm-none-eabi/4.7.4/../../../../arm-none-eabi/lib/armv7e-m\libm.a(lib_a-e_log.o)
                                                  c:/chibistudio/tools/gnu tools arm embedded/4.7 2013q2/bin/../lib/gcc/arm-none-eabi/4.7.4/../../../../arm-none-eabi/lib/armv7e-m\libm.a(lib_a-s_round.o)
                                                  build/obj/engine_math.o
                                                  build/obj/rfi_perftest.o
__aeabi_dcmpeq                                    c:/chibistudio/tools/gnu tools arm embedded/4.7 2013q2/bin/../lib/gcc/arm-none-eabi/4.7.4/armv7e-m\libgcc.a(_arm_cmpdf2.o)
                                                  c:/chibistudio/tools/gnu tools arm embedded/4.7 2013q2/bin/../lib/gcc/arm-none-eabi/4.7.4/../../../../arm-none-eabi/lib/armv7e-m\libm.a(lib_a-e_log.o)
                                                  c:/chibistudio/tools/gnu tools arm embedded/4.7 2013q2/bin/../lib/gcc/arm-none-eabi/4.7.4/../../../../arm-none-eabi/lib/armv7e-m\libm.a(lib_a-w_pow.o)
                                                  c:/chibistudio/tools/gnu tools arm embedded/4.7 2013q2/bin/../lib/gcc/arm-none-eabi/4.7.4/../../../../arm-none-eabi/lib/armv7e-m\libm.a(lib_a-w_log.o)
                                                  build/obj/rfi_perftest.o
__aeabi_dcmpge                                    c:/chibistudio/tools/gnu tools arm embedded/4.7 2013q2/bin/../lib/gcc/arm-none-eabi/4.7.4/armv7e-m\libgcc.a(_arm_cmpdf2.o)
__aeabi_dcmpgt                                    c:/chibistudio/tools/gnu tools arm embedded/4.7 2013q2/bin/../lib/gcc/arm-none-eabi/4.7.4/armv7e-m\libgcc.a(_arm_cmpdf2.o)
                                                  c:/chibistudio/tools/gnu tools arm embedded/4.7 2013q2/bin/../lib/gcc/arm-none-eabi/4.7.4/../../../../arm-none-eabi/lib/armv7e-m\libm.a(lib_a-e_pow.o)
                                                  c:/chibistudio/tools/gnu tools arm embedded/4.7 2013q2/bin/../lib/gcc/arm-none-eabi/4.7.4/../../../../arm-none-eabi/lib/armv7e-m\libm.a(lib_a-w_log.o)
__aeabi_dcmple                                    c:/chibistudio/tools/gnu tools arm embedded/4.7 2013q2/bin/../lib/gcc/arm-none-eabi/4.7.4/armv7e-m\libgcc.a(_arm_cmpdf2.o)
                                                  c:/chibistudio/tools/gnu tools arm embedded/4.7 2013q2/bin/../lib/gcc/arm-none-eabi/4.7.4/../../../../arm-none-eabi/lib/armv7e-m\libm.a(lib_a-e_pow.o)
__aeabi_dcmplt                                    c:/chibistudio/tools/gnu tools arm embedded/4.7 2013q2/bin/../lib/gcc/arm-none-eabi/4.7.4/armv7e-m\libgcc.a(_arm_cmpdf2.o)
                                                  c:/chibistudio/tools/gnu tools arm embedded/4.7 2013q2/bin/../lib/gcc/arm-none-eabi/4.7.4/armv7e-m\libgcc.a(_fixdfdi.o)
                                                  c:/chibistudio/tools/gnu tools arm embedded/4.7 2013q2/bin/../lib/gcc/arm-none-eabi/4.7.4/../../../../arm-none-eabi/lib/armv7e-m\libm.a(lib_a-w_pow.o)
                                                  build/obj/settings.o
                                                  build/obj/chprintf.o
__aeabi_ddiv                                      c:/chibistudio/tools/gnu tools arm embedded/4.7 2013q2/bin/../lib/gcc/arm-none-eabi/4.7.4/armv7e-m\libgcc.a(_arm_muldivdf3.o)
                                                  c:/chibistudio/tools/gnu tools arm embedded/4.7 2013q2/bin/../lib/gcc/arm-none-eabi/4.7.4/../../../../arm-none-eabi/lib/armv7e-m\libm.a(lib_a-e_sqrt.o)
                                                  c:/chibistudio/tools/gnu tools arm embedded/4.7 2013q2/bin/../lib/gcc/arm-none-eabi/4.7.4/../../../../arm-none-eabi/lib/armv7e-m\libm.a(lib_a-e_pow.o)
                                                  c:/chibistudio/tools/gnu tools arm embedded/4.7 2013q2/bin/../lib/gcc/arm-none-eabi/4.7.4/../../../../arm-none-eabi/lib/armv7e-m\libm.a(lib_a-e_log.o)
                                                  c:/chibistudio/tools/gnu tools arm embedded/4.7 2013q2/bin/../lib/gcc/arm-none-eabi/4.7.4/../../../../arm-none-eabi/lib/armv7e-m\libm.a(lib_a-w_pow.o)
                                                  build/obj/engine_math.o
                                                  build/obj/engine_controller.o
                                                  build/obj/settings.o
                                                  build/obj/engine_emulator.o
                                                  build/obj/rfi_perftest.o
                                                  build/obj/trigger_decoder.o
                                                  build/obj/thermistors.o
                                                  build/obj/nmea.o
__aeabi_dmul                                      c:/chibistudio/tools/gnu tools arm embedded/4.7 2013q2/bin/../lib/gcc/arm-none-eabi/4.7.4/armv7e-m\libgcc.a(_arm_muldivdf3.o)
                                                  c:/chibistudio/tools/gnu tools arm embedded/4.7 2013q2/bin/../lib/gcc/arm-none-eabi/4.7.4/armv7e-m\libgcc.a(_fixunsdfdi.o)
                                                  c:/chibistudio/tools/gnu tools arm embedded/4.7 2013q2/bin/../lib/gcc/arm-none-eabi/4.7.4/armv7e-m\libgcc.a(_fixunssfdi.o)
                                                  c:/chibistudio/tools/gnu tools arm embedded/4.7 2013q2/bin/../lib/gcc/arm-none-eabi/4.7.4/../../../../arm-none-eabi/lib/armv7e-m\libm.a(lib_a-s_scalbn.o)
                                                  c:/chibistudio/tools/gnu tools arm embedded/4.7 2013q2/bin/../lib/gcc/arm-none-eabi/4.7.4/../../../../arm-none-eabi/lib/armv7e-m\libm.a(lib_a-e_sqrt.o)
                                                  c:/chibistudio/tools/gnu tools arm embedded/4.7 2013q2/bin/../lib/gcc/arm-none-eabi/4.7.4/../../../../arm-none-eabi/lib/armv7e-m\libm.a(lib_a-e_pow.o)
                                                  c:/chibistudio/tools/gnu tools arm embedded/4.7 2013q2/bin/../lib/gcc/arm-none-eabi/4.7.4/../../../../arm-none-eabi/lib/armv7e-m\libm.a(lib_a-e_log.o)
                                                  c:/chibistudio/tools/gnu tools arm embedded/4.7 2013q2/bin/../lib/gcc/arm-none-eabi/4.7.4/../../../../arm-none-eabi/lib/armv7e-m\libm.a(lib_a-w_pow.o)
                                                  build/obj/engine_math.o
                                                  build/obj/engine_controller.o
                                                  build/obj/settings.o
                                                  build/obj/trigger_decoder.o
                                                  build/obj/thermistors.o
                                                  build/obj/nmea.o
                                                  build/obj/histogram.o
                                                  build/obj/chprintf.o
__aeabi_drsub                                     c:/chibistudio/tools/gnu tools arm embedded/4.7 2013q2/bin/../lib/gcc/arm-none-eabi/4.7.4/armv7e-m\libgcc.a(_arm_addsubdf3.o)
__aeabi_dsub                                      c:/chibistudio/tools/gnu tools arm embedded/4.7 2013q2/bin/../lib/gcc/arm-none-eabi/4.7.4/armv7e-m\libgcc.a(_arm_addsubdf3.o)
                                                  c:/chibistudio/tools/gnu tools arm embedded/4.7 2013q2/bin/../lib/gcc/arm-none-eabi/4.7.4/armv7e-m\libgcc.a(_fixunsdfdi.o)
                                                  c:/chibistudio/tools/gnu tools arm embedded/4.7 2013q2/bin/../lib/gcc/arm-none-eabi/4.7.4/armv7e-m\libgcc.a(_fixunssfdi.o)
                                                  c:/chibistudio/tools/gnu tools arm embedded/4.7 2013q2/bin/../lib/gcc/arm-none-eabi/4.7.4/../../../../arm-none-eabi/lib/armv7e-m\libm.a(lib_a-s_rint.o)
                                                  c:/chibistudio/tools/gnu tools arm embedded/4.7 2013q2/bin/../lib/gcc/arm-none-eabi/4.7.4/../../../../arm-none-eabi/lib/armv7e-m\libm.a(lib_a-e_sqrt.o)
                                                  c:/chibistudio/tools/gnu tools arm embedded/4.7 2013q2/bin/../lib/gcc/arm-none-eabi/4.7.4/../../../../arm-none-eabi/lib/armv7e-m\libm.a(lib_a-e_pow.o)
                                                  c:/chibistudio/tools/gnu tools arm embedded/4.7 2013q2/bin/../lib/gcc/arm-none-eabi/4.7.4/../../../../arm-none-eabi/lib/armv7e-m\libm.a(lib_a-e_log.o)
                                                  c:/chibistudio/tools/gnu tools arm embedded/4.7 2013q2/bin/../lib/gcc/arm-none-eabi/4.7.4/../../../../arm-none-eabi/lib/armv7e-m\libm.a(lib_a-s_modf.o)
                                                  build/obj/chprintf.o
__aeabi_f2d                                       c:/chibistudio/tools/gnu tools arm embedded/4.7 2013q2/bin/../lib/gcc/arm-none-eabi/4.7.4/armv7e-m\libgcc.a(_arm_addsubdf3.o)
                                                  c:/chibistudio/tools/gnu tools arm embedded/4.7 2013q2/bin/../lib/gcc/arm-none-eabi/4.7.4/armv7e-m\libgcc.a(_fixunssfdi.o)
                                                  build/obj/engine_math.o
                                                  build/obj/engine_controller.o
                                                  build/obj/settings.o
                                                  build/obj/engine_emulator.o
                                                  build/obj/rfi_perftest.o
                                                  build/obj/main_trigger_callback.o
                                                  build/obj/trigger_decoder.o
                                                  build/obj/thermistors.o
                                                  build/obj/nmea.o
                                                  build/obj/interpolation.o
                                                  build/obj/signal_executor.o
                                                  build/obj/fuel_math.o
                                                  build/obj/map_multiplier_thread.o
                                                  build/obj/injector_central.o
                                                  build/obj/neo6m.o
                                                  build/obj/adc_inputs.o
                                                  build/obj/analog_chart.o
                                                  build/obj/datalogging.o
                                                  build/obj/status_loop.o
                                                  build/obj/chprintf.o
__aeabi_f2iz                                      c:/chibistudio/tools/gnu tools arm embedded/4.7 2013q2/bin/../lib/gcc/arm-none-eabi/4.7.4/armv7e-m\libgcc.a(_arm_fixsfsi.o)
                                                  build/obj/settings.o
                                                  build/obj/rfi_perftest.o
                                                  build/obj/trigger_decoder.o
__aeabi_f2lz                                      c:/chibistudio/tools/gnu tools arm embedded/4.7 2013q2/bin/../lib/gcc/arm-none-eabi/4.7.4/armv7e-m\libgcc.a(_fixsfdi.o)
                                                  build/obj/histogram.o
__aeabi_f2ulz                                     c:/chibistudio/tools/gnu tools arm embedded/4.7 2013q2/bin/../lib/gcc/arm-none-eabi/4.7.4/armv7e-m\libgcc.a(_fixunssfdi.o)
                                                  c:/chibistudio/tools/gnu tools arm embedded/4.7 2013q2/bin/../lib/gcc/arm-none-eabi/4.7.4/armv7e-m\libgcc.a(_fixsfdi.o)
__aeabi_fadd                                      c:/chibistudio/tools/gnu tools arm embedded/4.7 2013q2/bin/../lib/gcc/arm-none-eabi/4.7.4/armv7e-m\libgcc.a(_arm_addsubsf3.o)
                                                  build/obj/engine_math.o
                                                  build/obj/efilib.o
                                                  build/obj/rfi_perftest.o
                                                  build/obj/trigger_decoder.o
__aeabi_fcmpeq                                    c:/chibistudio/tools/gnu tools arm embedded/4.7 2013q2/bin/../lib/gcc/arm-none-eabi/4.7.4/armv7e-m\libgcc.a(_arm_cmpsf2.o)
                                                  build/obj/rfi_perftest.o
__aeabi_fcmpge                                    c:/chibistudio/tools/gnu tools arm embedded/4.7 2013q2/bin/../lib/gcc/arm-none-eabi/4.7.4/armv7e-m\libgcc.a(_arm_cmpsf2.o)
                                                  build/obj/engine_math.o
__aeabi_fcmpgt                                    c:/chibistudio/tools/gnu tools arm embedded/4.7 2013q2/bin/../lib/gcc/arm-none-eabi/4.7.4/armv7e-m\libgcc.a(_arm_cmpsf2.o)
                                                  build/obj/engine_math.o
                                                  build/obj/engine_controller.o
                                                  build/obj/settings.o
                                                  build/obj/trigger_decoder.o
__aeabi_fcmple                                    c:/chibistudio/tools/gnu tools arm embedded/4.7 2013q2/bin/../lib/gcc/arm-none-eabi/4.7.4/armv7e-m\libgcc.a(_arm_cmpsf2.o)
                                                  build/obj/main_trigger_callback.o
__aeabi_fcmplt                                    c:/chibistudio/tools/gnu tools arm embedded/4.7 2013q2/bin/../lib/gcc/arm-none-eabi/4.7.4/armv7e-m\libgcc.a(_arm_cmpsf2.o)
                                                  c:/chibistudio/tools/gnu tools arm embedded/4.7 2013q2/bin/../lib/gcc/arm-none-eabi/4.7.4/armv7e-m\libgcc.a(_fixsfdi.o)
                                                  build/obj/engine_math.o
                                                  build/obj/main_trigger_callback.o
                                                  build/obj/trigger_decoder.o
__aeabi_fdiv                                      c:/chibistudio/tools/gnu tools arm embedded/4.7 2013q2/bin/../lib/gcc/arm-none-eabi/4.7.4/armv7e-m\libgcc.a(_arm_muldivsf3.o)
                                                  build/obj/efilib.o
                                                  build/obj/trigger_emulator_algo.o
                                                  build/obj/main_trigger_callback.o
__aeabi_fmul                                      c:/chibistudio/tools/gnu tools arm embedded/4.7 2013q2/bin/../lib/gcc/arm-none-eabi/4.7.4/armv7e-m\libgcc.a(_arm_muldivsf3.o)
                                                  build/obj/engine_math.o
                                                  build/obj/efilib.o
                                                  build/obj/trigger_emulator_algo.o
                                                  build/obj/main_trigger_callback.o
                                                  build/obj/trigger_decoder.o
__aeabi_frsub                                     c:/chibistudio/tools/gnu tools arm embedded/4.7 2013q2/bin/../lib/gcc/arm-none-eabi/4.7.4/armv7e-m\libgcc.a(_arm_addsubsf3.o)
__aeabi_fsub                                      c:/chibistudio/tools/gnu tools arm embedded/4.7 2013q2/bin/../lib/gcc/arm-none-eabi/4.7.4/armv7e-m\libgcc.a(_arm_addsubsf3.o)
                                                  build/obj/engine_math.o
                                                  build/obj/main_trigger_callback.o
                                                  build/obj/trigger_gm.o
__aeabi_i2d                                       c:/chibistudio/tools/gnu tools arm embedded/4.7 2013q2/bin/../lib/gcc/arm-none-eabi/4.7.4/armv7e-m\libgcc.a(_arm_addsubdf3.o)
                                                  c:/chibistudio/tools/gnu tools arm embedded/4.7 2013q2/bin/../lib/gcc/arm-none-eabi/4.7.4/../../../../arm-none-eabi/lib/armv7e-m\libm.a(lib_a-e_pow.o)
                                                  c:/chibistudio/tools/gnu tools arm embedded/4.7 2013q2/bin/../lib/gcc/arm-none-eabi/4.7.4/../../../../arm-none-eabi/lib/armv7e-m\libm.a(lib_a-e_log.o)
                                                  build/obj/engine_math.o
                                                  build/obj/engine_controller.o
                                                  build/obj/settings.o
                                                  build/obj/engine_emulator.o
                                                  build/obj/trigger_decoder.o
                                                  build/obj/malfunction_indicator.o
                                                  build/obj/chprintf.o
__aeabi_i2f                                       c:/chibistudio/tools/gnu tools arm embedded/4.7 2013q2/bin/../lib/gcc/arm-none-eabi/4.7.4/armv7e-m\libgcc.a(_arm_addsubsf3.o)
                                                  build/obj/engine_math.o
                                                  build/obj/efilib.o
                                                  build/obj/settings.o
                                                  build/obj/trigger_emulator_algo.o
                                                  build/obj/rfi_perftest.o
                                                  build/obj/trigger_chrysler.o
                                                  build/obj/trigger_decoder.o
__aeabi_idiv0                                     c:/chibistudio/tools/gnu tools arm embedded/4.7 2013q2/bin/../lib/gcc/arm-none-eabi/4.7.4/armv7e-m\libgcc.a(_dvmd_tls.o)
__aeabi_l2d                                       c:/chibistudio/tools/gnu tools arm embedded/4.7 2013q2/bin/../lib/gcc/arm-none-eabi/4.7.4/armv7e-m\libgcc.a(_arm_addsubdf3.o)
                                                  build/obj/histogram.o
__aeabi_l2f                                       c:/chibistudio/tools/gnu tools arm embedded/4.7 2013q2/bin/../lib/gcc/arm-none-eabi/4.7.4/armv7e-m\libgcc.a(_arm_addsubsf3.o)
                                                  build/obj/histogram.o
__aeabi_ldiv0                                     c:/chibistudio/tools/gnu tools arm embedded/4.7 2013q2/bin/../lib/gcc/arm-none-eabi/4.7.4/armv7e-m\libgcc.a(_dvmd_tls.o)
                                                  c:/chibistudio/tools/gnu tools arm embedded/4.7 2013q2/bin/../lib/gcc/arm-none-eabi/4.7.4/armv7e-m\libgcc.a(_aeabi_uldivmod.o)
                                                  c:/chibistudio/tools/gnu tools arm embedded/4.7 2013q2/bin/../lib/gcc/arm-none-eabi/4.7.4/armv7e-m\libgcc.a(_aeabi_ldivmod.o)
__aeabi_ldivmod                                   c:/chibistudio/tools/gnu tools arm embedded/4.7 2013q2/bin/../lib/gcc/arm-none-eabi/4.7.4/armv7e-m\libgcc.a(_aeabi_ldivmod.o)
                                                  build/obj/histogram.o
__aeabi_ui2d                                      c:/chibistudio/tools/gnu tools arm embedded/4.7 2013q2/bin/../lib/gcc/arm-none-eabi/4.7.4/armv7e-m\libgcc.a(_arm_addsubdf3.o)
                                                  c:/chibistudio/tools/gnu tools arm embedded/4.7 2013q2/bin/../lib/gcc/arm-none-eabi/4.7.4/armv7e-m\libgcc.a(_fixunsdfdi.o)
                                                  c:/chibistudio/tools/gnu tools arm embedded/4.7 2013q2/bin/../lib/gcc/arm-none-eabi/4.7.4/armv7e-m\libgcc.a(_fixunssfdi.o)
                                                  build/obj/chprintf.o
__aeabi_ui2f                                      c:/chibistudio/tools/gnu tools arm embedded/4.7 2013q2/bin/../lib/gcc/arm-none-eabi/4.7.4/armv7e-m\libgcc.a(_arm_addsubsf3.o)
__aeabi_ul2d                                      c:/chibistudio/tools/gnu tools arm embedded/4.7 2013q2/bin/../lib/gcc/arm-none-eabi/4.7.4/armv7e-m\libgcc.a(_arm_addsubdf3.o)
__aeabi_ul2f                                      c:/chibistudio/tools/gnu tools arm embedded/4.7 2013q2/bin/../lib/gcc/arm-none-eabi/4.7.4/armv7e-m\libgcc.a(_arm_addsubsf3.o)
__aeabi_uldivmod                                  c:/chibistudio/tools/gnu tools arm embedded/4.7 2013q2/bin/../lib/gcc/arm-none-eabi/4.7.4/armv7e-m\libgcc.a(_aeabi_uldivmod.o)
                                                  build/obj/engine_controller.o
                                                  build/obj/rfi_perftest.o
__cmpdf2                                          c:/chibistudio/tools/gnu tools arm embedded/4.7 2013q2/bin/../lib/gcc/arm-none-eabi/4.7.4/armv7e-m\libgcc.a(_arm_cmpdf2.o)
__cmpsf2                                          c:/chibistudio/tools/gnu tools arm embedded/4.7 2013q2/bin/../lib/gcc/arm-none-eabi/4.7.4/armv7e-m\libgcc.a(_arm_cmpsf2.o)
__divdf3                                          c:/chibistudio/tools/gnu tools arm embedded/4.7 2013q2/bin/../lib/gcc/arm-none-eabi/4.7.4/armv7e-m\libgcc.a(_arm_muldivdf3.o)
__divdi3                                          c:/chibistudio/tools/gnu tools arm embedded/4.7 2013q2/bin/../lib/gcc/arm-none-eabi/4.7.4/armv7e-m\libgcc.a(_divdi3.o)
                                                  c:/chibistudio/tools/gnu tools arm embedded/4.7 2013q2/bin/../lib/gcc/arm-none-eabi/4.7.4/armv7e-m\libgcc.a(bpabi.o)
__divsf3                                          c:/chibistudio/tools/gnu tools arm embedded/4.7 2013q2/bin/../lib/gcc/arm-none-eabi/4.7.4/armv7e-m\libgcc.a(_arm_muldivsf3.o)
__early_init                                      build/obj/board.o
                                                  build/obj/crt0.o
__eqdf2                                           c:/chibistudio/tools/gnu tools arm embedded/4.7 2013q2/bin/../lib/gcc/arm-none-eabi/4.7.4/armv7e-m\libgcc.a(_arm_cmpdf2.o)
__eqsf2                                           c:/chibistudio/tools/gnu tools arm embedded/4.7 2013q2/bin/../lib/gcc/arm-none-eabi/4.7.4/armv7e-m\libgcc.a(_arm_cmpsf2.o)
__errno                                           c:/chibistudio/tools/gnu tools arm embedded/4.7 2013q2/bin/../lib/gcc/arm-none-eabi/4.7.4/../../../../arm-none-eabi/lib/armv7e-m\libc.a(lib_a-errno.o)
                                                  c:/chibistudio/tools/gnu tools arm embedded/4.7 2013q2/bin/../lib/gcc/arm-none-eabi/4.7.4/../../../../arm-none-eabi/lib/armv7e-m\libm.a(lib_a-w_pow.o)
                                                  c:/chibistudio/tools/gnu tools arm embedded/4.7 2013q2/bin/../lib/gcc/arm-none-eabi/4.7.4/../../../../arm-none-eabi/lib/armv7e-m\libm.a(lib_a-w_log.o)
__extendsfdf2                                     c:/chibistudio/tools/gnu tools arm embedded/4.7 2013q2/bin/../lib/gcc/arm-none-eabi/4.7.4/armv7e-m\libgcc.a(_arm_addsubdf3.o)
__fdlib_version                                   c:/chibistudio/tools/gnu tools arm embedded/4.7 2013q2/bin/../lib/gcc/arm-none-eabi/4.7.4/../../../../arm-none-eabi/lib/armv7e-m\libm.a(lib_a-s_lib_ver.o)
                                                  c:/chibistudio/tools/gnu tools arm embedded/4.7 2013q2/bin/../lib/gcc/arm-none-eabi/4.7.4/../../../../arm-none-eabi/lib/armv7e-m\libm.a(lib_a-w_pow.o)
                                                  c:/chibistudio/tools/gnu tools arm embedded/4.7 2013q2/bin/../lib/gcc/arm-none-eabi/4.7.4/../../../../arm-none-eabi/lib/armv7e-m\libm.a(lib_a-w_log.o)
__fini_array_end                                  build/obj/crt0.o
__fini_array_start                                build/obj/crt0.o
__fixdfdi                                         c:/chibistudio/tools/gnu tools arm embedded/4.7 2013q2/bin/../lib/gcc/arm-none-eabi/4.7.4/armv7e-m\libgcc.a(_fixdfdi.o)
__fixdfsi                                         c:/chibistudio/tools/gnu tools arm embedded/4.7 2013q2/bin/../lib/gcc/arm-none-eabi/4.7.4/armv7e-m\libgcc.a(_arm_fixdfsi.o)
__fixsfdi                                         c:/chibistudio/tools/gnu tools arm embedded/4.7 2013q2/bin/../lib/gcc/arm-none-eabi/4.7.4/armv7e-m\libgcc.a(_fixsfdi.o)
__fixsfsi                                         c:/chibistudio/tools/gnu tools arm embedded/4.7 2013q2/bin/../lib/gcc/arm-none-eabi/4.7.4/armv7e-m\libgcc.a(_arm_fixsfsi.o)
__fixunsdfdi                                      c:/chibistudio/tools/gnu tools arm embedded/4.7 2013q2/bin/../lib/gcc/arm-none-eabi/4.7.4/armv7e-m\libgcc.a(_fixunsdfdi.o)
__fixunsdfsi                                      c:/chibistudio/tools/gnu tools arm embedded/4.7 2013q2/bin/../lib/gcc/arm-none-eabi/4.7.4/armv7e-m\libgcc.a(_arm_fixunsdfsi.o)
__fixunssfdi                                      c:/chibistudio/tools/gnu tools arm embedded/4.7 2013q2/bin/../lib/gcc/arm-none-eabi/4.7.4/armv7e-m\libgcc.a(_fixunssfdi.o)
__floatdidf                                       c:/chibistudio/tools/gnu tools arm embedded/4.7 2013q2/bin/../lib/gcc/arm-none-eabi/4.7.4/armv7e-m\libgcc.a(_arm_addsubdf3.o)
__floatdisf                                       c:/chibistudio/tools/gnu tools arm embedded/4.7 2013q2/bin/../lib/gcc/arm-none-eabi/4.7.4/armv7e-m\libgcc.a(_arm_addsubsf3.o)
__floatsidf                                       c:/chibistudio/tools/gnu tools arm embedded/4.7 2013q2/bin/../lib/gcc/arm-none-eabi/4.7.4/armv7e-m\libgcc.a(_arm_addsubdf3.o)
__floatsisf                                       c:/chibistudio/tools/gnu tools arm embedded/4.7 2013q2/bin/../lib/gcc/arm-none-eabi/4.7.4/armv7e-m\libgcc.a(_arm_addsubsf3.o)
__floatundidf                                     c:/chibistudio/tools/gnu tools arm embedded/4.7 2013q2/bin/../lib/gcc/arm-none-eabi/4.7.4/armv7e-m\libgcc.a(_arm_addsubdf3.o)
__floatundisf                                     c:/chibistudio/tools/gnu tools arm embedded/4.7 2013q2/bin/../lib/gcc/arm-none-eabi/4.7.4/armv7e-m\libgcc.a(_arm_addsubsf3.o)
__floatunsidf                                     c:/chibistudio/tools/gnu tools arm embedded/4.7 2013q2/bin/../lib/gcc/arm-none-eabi/4.7.4/armv7e-m\libgcc.a(_arm_addsubdf3.o)
__floatunsisf                                     c:/chibistudio/tools/gnu tools arm embedded/4.7 2013q2/bin/../lib/gcc/arm-none-eabi/4.7.4/armv7e-m\libgcc.a(_arm_addsubsf3.o)
__fpclassifyd                                     c:/chibistudio/tools/gnu tools arm embedded/4.7 2013q2/bin/../lib/gcc/arm-none-eabi/4.7.4/../../../../arm-none-eabi/lib/armv7e-m\libm.a(lib_a-s_fpclassify.o)
                                                  c:/chibistudio/tools/gnu tools arm embedded/4.7 2013q2/bin/../lib/gcc/arm-none-eabi/4.7.4/../../../../arm-none-eabi/lib/armv7e-m\libm.a(lib_a-w_pow.o)
                                                  c:/chibistudio/tools/gnu tools arm embedded/4.7 2013q2/bin/../lib/gcc/arm-none-eabi/4.7.4/../../../../arm-none-eabi/lib/armv7e-m\libm.a(lib_a-w_log.o)
                                                  build/obj/chprintf.o
__gedf2                                           c:/chibistudio/tools/gnu tools arm embedded/4.7 2013q2/bin/../lib/gcc/arm-none-eabi/4.7.4/armv7e-m\libgcc.a(_arm_cmpdf2.o)
__gesf2                                           c:/chibistudio/tools/gnu tools arm embedded/4.7 2013q2/bin/../lib/gcc/arm-none-eabi/4.7.4/armv7e-m\libgcc.a(_arm_cmpsf2.o)
__gettzinfo                                       c:/chibistudio/tools/gnu tools arm embedded/4.7 2013q2/bin/../lib/gcc/arm-none-eabi/4.7.4/../../../../arm-none-eabi/lib/armv7e-m\libc.a(lib_a-gettzinfo.o)
                                                  c:/chibistudio/tools/gnu tools arm embedded/4.7 2013q2/bin/../lib/gcc/arm-none-eabi/4.7.4/../../../../arm-none-eabi/lib/armv7e-m\libc.a(lib_a-mktm_r.o)
                                                  c:/chibistudio/tools/gnu tools arm embedded/4.7 2013q2/bin/../lib/gcc/arm-none-eabi/4.7.4/../../../../arm-none-eabi/lib/armv7e-m\libc.a(lib_a-mktime.o)
__gnu_ldivmod_helper                              c:/chibistudio/tools/gnu tools arm embedded/4.7 2013q2/bin/../lib/gcc/arm-none-eabi/4.7.4/armv7e-m\libgcc.a(bpabi.o)
                                                  c:/chibistudio/tools/gnu tools arm embedded/4.7 2013q2/bin/../lib/gcc/arm-none-eabi/4.7.4/armv7e-m\libgcc.a(_aeabi_ldivmod.o)
__gnu_uldivmod_helper                             c:/chibistudio/tools/gnu tools arm embedded/4.7 2013q2/bin/../lib/gcc/arm-none-eabi/4.7.4/armv7e-m\libgcc.a(bpabi.o)
                                                  c:/chibistudio/tools/gnu tools arm embedded/4.7 2013q2/bin/../lib/gcc/arm-none-eabi/4.7.4/armv7e-m\libgcc.a(_aeabi_uldivmod.o)
__gtdf2                                           c:/chibistudio/tools/gnu tools arm embedded/4.7 2013q2/bin/../lib/gcc/arm-none-eabi/4.7.4/armv7e-m\libgcc.a(_arm_cmpdf2.o)
__gtsf2                                           c:/chibistudio/tools/gnu tools arm embedded/4.7 2013q2/bin/../lib/gcc/arm-none-eabi/4.7.4/armv7e-m\libgcc.a(_arm_cmpsf2.o)
__heap_base__                                     build/obj/chmemcore.o
__heap_end__                                      build/obj/chmemcore.o
__ieee754_log                                     c:/chibistudio/tools/gnu tools arm embedded/4.7 2013q2/bin/../lib/gcc/arm-none-eabi/4.7.4/../../../../arm-none-eabi/lib/armv7e-m\libm.a(lib_a-e_log.o)
                                                  c:/chibistudio/tools/gnu tools arm embedded/4.7 2013q2/bin/../lib/gcc/arm-none-eabi/4.7.4/../../../../arm-none-eabi/lib/armv7e-m\libm.a(lib_a-w_log.o)
__ieee754_pow                                     c:/chibistudio/tools/gnu tools arm embedded/4.7 2013q2/bin/../lib/gcc/arm-none-eabi/4.7.4/../../../../arm-none-eabi/lib/armv7e-m\libm.a(lib_a-e_pow.o)
                                                  c:/chibistudio/tools/gnu tools arm embedded/4.7 2013q2/bin/../lib/gcc/arm-none-eabi/4.7.4/../../../../arm-none-eabi/lib/armv7e-m\libm.a(lib_a-w_pow.o)
__ieee754_sqrt                                    c:/chibistudio/tools/gnu tools arm embedded/4.7 2013q2/bin/../lib/gcc/arm-none-eabi/4.7.4/../../../../arm-none-eabi/lib/armv7e-m\libm.a(lib_a-e_sqrt.o)
                                                  c:/chibistudio/tools/gnu tools arm embedded/4.7 2013q2/bin/../lib/gcc/arm-none-eabi/4.7.4/../../../../arm-none-eabi/lib/armv7e-m\libm.a(lib_a-e_pow.o)
__init_array_end                                  build/obj/crt0.o
__init_array_start                                build/obj/crt0.o
__late_init                                       build/obj/crt0.o
__ledf2                                           c:/chibistudio/tools/gnu tools arm embedded/4.7 2013q2/bin/../lib/gcc/arm-none-eabi/4.7.4/armv7e-m\libgcc.a(_arm_cmpdf2.o)
__lesf2                                           c:/chibistudio/tools/gnu tools arm embedded/4.7 2013q2/bin/../lib/gcc/arm-none-eabi/4.7.4/armv7e-m\libgcc.a(_arm_cmpsf2.o)
__ltdf2                                           c:/chibistudio/tools/gnu tools arm embedded/4.7 2013q2/bin/../lib/gcc/arm-none-eabi/4.7.4/armv7e-m\libgcc.a(_arm_cmpdf2.o)
__ltsf2                                           c:/chibistudio/tools/gnu tools arm embedded/4.7 2013q2/bin/../lib/gcc/arm-none-eabi/4.7.4/armv7e-m\libgcc.a(_arm_cmpsf2.o)
__main_stack_base__                               build/obj/crt0.o
__main_stack_end__                                build/obj/vectors.o
                                                  build/obj/crt0.o
__main_thread_stack_base__                        build/obj/chsys.o
__muldf3                                          c:/chibistudio/tools/gnu tools arm embedded/4.7 2013q2/bin/../lib/gcc/arm-none-eabi/4.7.4/armv7e-m\libgcc.a(_arm_muldivdf3.o)
__mulsf3                                          c:/chibistudio/tools/gnu tools arm embedded/4.7 2013q2/bin/../lib/gcc/arm-none-eabi/4.7.4/armv7e-m\libgcc.a(_arm_muldivsf3.o)
__nedf2                                           c:/chibistudio/tools/gnu tools arm embedded/4.7 2013q2/bin/../lib/gcc/arm-none-eabi/4.7.4/armv7e-m\libgcc.a(_arm_cmpdf2.o)
__nesf2                                           c:/chibistudio/tools/gnu tools arm embedded/4.7 2013q2/bin/../lib/gcc/arm-none-eabi/4.7.4/armv7e-m\libgcc.a(_arm_cmpsf2.o)
__process_stack_base__                            build/obj/crt0.o
__process_stack_end__                             build/obj/crt0.o
__subdf3                                          c:/chibistudio/tools/gnu tools arm embedded/4.7 2013q2/bin/../lib/gcc/arm-none-eabi/4.7.4/armv7e-m\libgcc.a(_arm_addsubdf3.o)
__subsf3                                          c:/chibistudio/tools/gnu tools arm embedded/4.7 2013q2/bin/../lib/gcc/arm-none-eabi/4.7.4/armv7e-m\libgcc.a(_arm_addsubsf3.o)
__truncdfsf2                                      c:/chibistudio/tools/gnu tools arm embedded/4.7 2013q2/bin/../lib/gcc/arm-none-eabi/4.7.4/armv7e-m\libgcc.a(_arm_truncdfsf2.o)
__tz_lock                                         c:/chibistudio/tools/gnu tools arm embedded/4.7 2013q2/bin/../lib/gcc/arm-none-eabi/4.7.4/../../../../arm-none-eabi/lib/armv7e-m\libc.a(lib_a-tzlock.o)
                                                  c:/chibistudio/tools/gnu tools arm embedded/4.7 2013q2/bin/../lib/gcc/arm-none-eabi/4.7.4/../../../../arm-none-eabi/lib/armv7e-m\libc.a(lib_a-mktm_r.o)
__tz_unlock                                       c:/chibistudio/tools/gnu tools arm embedded/4.7 2013q2/bin/../lib/gcc/arm-none-eabi/4.7.4/../../../../arm-none-eabi/lib/armv7e-m\libc.a(lib_a-tzlock.o)
                                                  c:/chibistudio/tools/gnu tools arm embedded/4.7 2013q2/bin/../lib/gcc/arm-none-eabi/4.7.4/../../../../arm-none-eabi/lib/armv7e-m\libc.a(lib_a-mktm_r.o)
__tzcalc_limits                                   c:/chibistudio/tools/gnu tools arm embedded/4.7 2013q2/bin/../lib/gcc/arm-none-eabi/4.7.4/../../../../arm-none-eabi/lib/armv7e-m\libc.a(lib_a-mktm_r.o)
                                                  c:/chibistudio/tools/gnu tools arm embedded/4.7 2013q2/bin/../lib/gcc/arm-none-eabi/4.7.4/../../../../arm-none-eabi/lib/armv7e-m\libc.a(lib_a-mktime.o)
__udivdi3                                         c:/chibistudio/tools/gnu tools arm embedded/4.7 2013q2/bin/../lib/gcc/arm-none-eabi/4.7.4/armv7e-m\libgcc.a(_udivdi3.o)
                                                  c:/chibistudio/tools/gnu tools arm embedded/4.7 2013q2/bin/../lib/gcc/arm-none-eabi/4.7.4/armv7e-m\libgcc.a(bpabi.o)
_bss_end                                          build/obj/crt0.o
_bss_start                                        build/obj/crt0.o
_core_init                                        build/obj/chmemcore.o
                                                  build/obj/chsys.o
_data                                             build/obj/crt0.o
_daylight                                         c:/chibistudio/tools/gnu tools arm embedded/4.7 2013q2/bin/../lib/gcc/arm-none-eabi/4.7.4/../../../../arm-none-eabi/lib/armv7e-m\libc.a(lib_a-tzvars.o)
                                                  c:/chibistudio/tools/gnu tools arm embedded/4.7 2013q2/bin/../lib/gcc/arm-none-eabi/4.7.4/../../../../arm-none-eabi/lib/armv7e-m\libc.a(lib_a-mktm_r.o)
                                                  c:/chibistudio/tools/gnu tools arm embedded/4.7 2013q2/bin/../lib/gcc/arm-none-eabi/4.7.4/../../../../arm-none-eabi/lib/armv7e-m\libc.a(lib_a-mktime.o)
_default_exit                                     build/obj/crt0.o
_edata                                            build/obj/crt0.o
_global_impure_ptr                                c:/chibistudio/tools/gnu tools arm embedded/4.7 2013q2/bin/../lib/gcc/arm-none-eabi/4.7.4/../../../../arm-none-eabi/lib/armv7e-m\libc.a(lib_a-impure.o)
_heap_init                                        build/obj/chheap.o
                                                  build/obj/chsys.o
_idle_thread                                      build/obj/chsys.o
_idle_thread_wa                                   build/obj/chsys.o
_impure_ptr                                       c:/chibistudio/tools/gnu tools arm embedded/4.7 2013q2/bin/../lib/gcc/arm-none-eabi/4.7.4/../../../../arm-none-eabi/lib/armv7e-m\libc.a(lib_a-impure.o)
                                                  c:/chibistudio/tools/gnu tools arm embedded/4.7 2013q2/bin/../lib/gcc/arm-none-eabi/4.7.4/../../../../arm-none-eabi/lib/armv7e-m\libc.a(lib_a-errno.o)
_mktm_r                                           c:/chibistudio/tools/gnu tools arm embedded/4.7 2013q2/bin/../lib/gcc/arm-none-eabi/4.7.4/../../../../arm-none-eabi/lib/armv7e-m\libc.a(lib_a-mktm_r.o)
                                                  c:/chibistudio/tools/gnu tools arm embedded/4.7 2013q2/bin/../lib/gcc/arm-none-eabi/4.7.4/../../../../arm-none-eabi/lib/armv7e-m\libc.a(lib_a-lcltime_r.o)
_pal_lld_init                                     build/obj/pal_lld.o
                                                  build/obj/hal.o
_pal_lld_setgroupmode                             build/obj/pal_lld.o
                                                  build/obj/usbconsole.o
                                                  build/obj/pin_repository.o
                                                  build/obj/pal.o
_port_init                                        build/obj/chcore_v7m.o
                                                  build/obj/chsys.o
_port_irq_epilogue                                build/obj/chcore_v7m.o
                                                  build/obj/serial_lld.o
                                                  build/obj/pwm_lld.o
                                                  build/obj/icu_lld.o
                                                  build/obj/usb_lld.o
                                                  build/obj/i2c_lld.o
                                                  build/obj/can_lld.o
                                                  build/obj/adc_lld.o
                                                  build/obj/stm32_dma.o
_port_switch                                      build/obj/chcore_v7m.o
                                                  build/obj/chschd.o
_port_switch_from_isr                             build/obj/chcore_v7m.o
_port_thread_start                                build/obj/chcore_v7m.o
                                                  build/obj/chthreads.o
_scheduler_init                                   build/obj/chschd.o
                                                  build/obj/chsys.o
_stm32_dma_streams                                build/obj/stm32_dma.o
                                                  build/obj/spi_lld.o
                                                  build/obj/i2c_lld.o
                                                  build/obj/adc_lld.o
_textdata                                         build/obj/crt0.o
_thread_init                                      build/obj/chthreads.o
                                                  build/obj/chsys.o
_timezone                                         c:/chibistudio/tools/gnu tools arm embedded/4.7 2013q2/bin/../lib/gcc/arm-none-eabi/4.7.4/../../../../arm-none-eabi/lib/armv7e-m\libc.a(lib_a-tzvars.o)
_tzname                                           c:/chibistudio/tools/gnu tools arm embedded/4.7 2013q2/bin/../lib/gcc/arm-none-eabi/4.7.4/../../../../arm-none-eabi/lib/armv7e-m\libc.a(lib_a-tzvars.o)
_unhandled_exception                              build/obj/vectors.o
_usb_ep0in                                        build/obj/usb.o
                                                  build/obj/usb_lld.o
_usb_ep0out                                       build/obj/usb.o
                                                  build/obj/usb_lld.o
_usb_ep0setup                                     build/obj/usb.o
                                                  build/obj/usb_lld.o
_usb_reset                                        build/obj/usb.o
                                                  build/obj/usb_lld.o
_vectors                                          build/obj/vectors.o
_vt_init                                          build/obj/chvt.o
                                                  build/obj/chsys.o
acAddData                                         build/obj/analog_chart.o
                                                  build/obj/rpm_calculator.o
                                                  build/obj/map_averaging.o
adcAcquireBus                                     build/obj/adc.o
adcConvert                                        build/obj/adc.o
adcInit                                           build/obj/adc.o
                                                  build/obj/hal.o
adcObjectInit                                     build/obj/adc.o
                                                  build/obj/adc_lld.o
adcReleaseBus                                     build/obj/adc.o
adcSTM32DisableTSVREFE                            build/obj/adc_lld.o
adcSTM32DisableVBATE                              build/obj/adc_lld.o
adcSTM32EnableTSVREFE                             build/obj/adc_lld.o
adcSTM32EnableVBATE                               build/obj/adc_lld.o
adcStart                                          build/obj/adc.o
                                                  build/obj/adc_inputs.o
adcStartConversion                                build/obj/adc.o
adcStartConversionI                               build/obj/adc.o
                                                  build/obj/adc_inputs.o
adcState                                          build/obj/hardware.o
adcStop                                           build/obj/adc.o
adcStopConversion                                 build/obj/adc.o
adcStopConversionI                                build/obj/adc.o
adc_in_out                                        build/obj/mcp3208.o
adc_lld_init                                      build/obj/adc_lld.o
                                                  build/obj/adc.o
adc_lld_start                                     build/obj/adc_lld.o
                                                  build/obj/adc.o
adc_lld_start_conversion                          build/obj/adc_lld.o
                                                  build/obj/adc.o
adc_lld_stop                                      build/obj/adc_lld.o
                                                  build/obj/adc.o
adc_lld_stop_conversion                           build/obj/adc_lld.o
                                                  build/obj/adc.o
addAfr                                            build/obj/map_multiplier_thread.o
addConsoleAction                                  build/obj/eficonsole_logic.o
                                                  build/obj/rusefi.o
                                                  build/obj/engine_controller.o
                                                  build/obj/settings.o
                                                  build/obj/engine_emulator.o
                                                  build/obj/rfi_perftest.o
                                                  build/obj/main_trigger_callback.o
                                                  build/obj/map_averaging.o
                                                  build/obj/flash_main.o
                                                  build/obj/neo6m.o
                                                  build/obj/mmc_card.o
                                                  build/obj/rtc_helper.o
                                                  build/obj/lcd_HD44780.o
                                                  build/obj/pin_repository.o
                                                  build/obj/adc_inputs.o
                                                  build/obj/tunerstudio.o
                                                  build/obj/status_loop.o
                                                  build/obj/eficonsole.o
addConsoleActionF                                 build/obj/eficonsole_logic.o
                                                  build/obj/settings.o
addConsoleActionI                                 build/obj/eficonsole_logic.o
                                                  build/obj/settings.o
                                                  build/obj/trigger_emulator_algo.o
                                                  build/obj/engine_emulator.o
                                                  build/obj/rfi_perftest.o
                                                  build/obj/wave_chart.o
                                                  build/obj/idle_thread.o
                                                  build/obj/adc_inputs.o
                                                  build/obj/status_loop.o
addConsoleActionII                                build/obj/eficonsole_logic.o
                                                  build/obj/settings.o
                                                  build/obj/engine_emulator.o
                                                  build/obj/injector_central.o
                                                  build/obj/hardware.o
                                                  build/obj/wave_analyzer.o
                                                  build/obj/status_loop.o
addConsoleActionS                                 build/obj/eficonsole_logic.o
                                                  build/obj/mmc_card.o
                                                  build/obj/rtc_helper.o
addConsoleActionSSS                               build/obj/eficonsole_logic.o
                                                  build/obj/settings.o
                                                  build/obj/injector_central.o
addError                                          build/obj/malfunction_central.o
                                                  build/obj/malfunction_indicator.o
addFuelEvents                                     build/obj/engine_math.o
addWaveChartEvent                                 build/obj/rpm_calculator.o
                                                  build/obj/signal_executor.o
                                                  build/obj/wave_analyzer.o
addWaveChartEvent3                                build/obj/wave_chart.o
                                                  build/obj/rpm_calculator.o
append                                            build/obj/datalogging.o
                                                  build/obj/error_handling.o
appendFloat                                       build/obj/datalogging.o
                                                  build/obj/wave_analyzer.o
appendMsgPostfix                                  build/obj/datalogging.o
                                                  build/obj/settings.o
                                                  build/obj/map_multiplier_thread.o
                                                  build/obj/rtc_helper.o
                                                  build/obj/adc_inputs.o
                                                  build/obj/rfiutil.o
appendMsgPrefix                                   build/obj/datalogging.o
                                                  build/obj/settings.o
                                                  build/obj/error_handling.o
                                                  build/obj/rtc_helper.o
                                                  build/obj/adc_inputs.o
                                                  build/obj/rfiutil.o
appendPrintf                                      build/obj/datalogging.o
                                                  build/obj/settings.o
                                                  build/obj/wave_chart.o
                                                  build/obj/map_multiplier_thread.o
                                                  build/obj/injector_central.o
                                                  build/obj/rtc_helper.o
                                                  build/obj/pin_repository.o
                                                  build/obj/adc_inputs.o
                                                  build/obj/wave_analyzer.o
                                                  build/obj/analog_chart.o
                                                  build/obj/rfiutil.o
                                                  build/obj/status_loop.o
appendToLog                                       build/obj/mmc_card.o
                                                  build/obj/status_loop.o
applyNonPersistentConfiguration                   build/obj/engine_configuration.o
                                                  build/obj/flash_main.o
applyPinState                                     build/obj/pwm_generator.o
                                                  build/obj/trigger_emulator.o
assertCylinderId                                  build/obj/injector_central.o
atoff                                             build/obj/efilib.o
                                                  build/obj/settings.o
                                                  build/obj/nmea.o
                                                  build/obj/injector_central.o
                                                  build/obj/rtc_helper.o
                                                  build/obj/eficonsole_logic.o
atoi                                              build/obj/efilib.o
                                                  build/obj/nmea.o
                                                  build/obj/injector_central.o
                                                  build/obj/eficonsole_logic.o
avgAddValue                                       build/obj/avg_values.o
avgFill                                           build/obj/avg_values.o
avgGetValue                                       build/obj/avg_values.o
avgGetValueByIndexes                              build/obj/avg_values.o
avgGetValuesCount                                 build/obj/avg_values.o
avgReset                                          build/obj/avg_values.o
boardConfiguration                                build/obj/flash_main.o
                                                  build/obj/engine_controller.o
                                                  build/obj/settings.o
                                                  build/obj/trigger_emulator.o
                                                  build/obj/ignition_central.o
                                                  build/obj/injector_central.o
                                                  build/obj/idle_thread.o
                                                  build/obj/lcd_HD44780.o
                                                  build/obj/io_pins.o
boardInit                                         build/obj/board.o
                                                  build/obj/hal.o
brainPin                                          build/obj/injector_central.o
calc_crc                                          build/obj/crc.o
                                                  build/obj/flash_main.o
canInit                                           build/obj/can.o
                                                  build/obj/hal.o
canObjectInit                                     build/obj/can.o
                                                  build/obj/can_lld.o
canReceive                                        build/obj/can.o
canSTM32SetFilters                                build/obj/can_lld.o
canSleep                                          build/obj/can.o
canStart                                          build/obj/can.o
canStop                                           build/obj/can.o
canTransmit                                       build/obj/can.o
canWakeup                                         build/obj/can.o
can_lld_init                                      build/obj/can_lld.o
                                                  build/obj/can.o
can_lld_is_rx_nonempty                            build/obj/can_lld.o
                                                  build/obj/can.o
can_lld_is_tx_empty                               build/obj/can_lld.o
                                                  build/obj/can.o
can_lld_receive                                   build/obj/can_lld.o
                                                  build/obj/can.o
can_lld_sleep                                     build/obj/can_lld.o
                                                  build/obj/can.o
can_lld_start                                     build/obj/can_lld.o
                                                  build/obj/can.o
can_lld_stop                                      build/obj/can_lld.o
                                                  build/obj/can.o
can_lld_transmit                                  build/obj/can_lld.o
                                                  build/obj/can.o
can_lld_wakeup                                    build/obj/can_lld.o
                                                  build/obj/can.o
chCondBroadcast                                   build/obj/chcond.o
                                                  build/obj/ch.o
chCondBroadcastI                                  build/obj/chcond.o
                                                  build/obj/ch.o
chCondInit                                        build/obj/chcond.o
                                                  build/obj/ch.o
chCondSignal                                      build/obj/chcond.o
                                                  build/obj/ch.o
chCondSignalI                                     build/obj/chcond.o
                                                  build/obj/ch.o
chCondWait                                        build/obj/chcond.o
                                                  build/obj/ch.o
chCondWaitS                                       build/obj/chcond.o
                                                  build/obj/ch.o
chCondWaitTimeout                                 build/obj/chcond.o
                                                  build/obj/ch.o
chCondWaitTimeoutS                                build/obj/chcond.o
chCoreAlloc                                       build/obj/chmemcore.o
                                                  build/obj/ch.o
                                                  build/obj/chheap.o
chCoreAllocI                                      build/obj/chmemcore.o
                                                  build/obj/ch.o
chCoreStatus                                      build/obj/chmemcore.o
                                                  build/obj/ch.o
chDbgCheckClassI                                  build/obj/chdebug.o
                                                  build/obj/usb.o
                                                  build/obj/serial.o
                                                  build/obj/adc.o
                                                  build/obj/chmempools.o
                                                  build/obj/chmemcore.o
                                                  build/obj/chqueues.o
                                                  build/obj/chmboxes.o
                                                  build/obj/chevents.o
                                                  build/obj/chcond.o
                                                  build/obj/chsem.o
                                                  build/obj/chthreads.o
                                                  build/obj/chschd.o
                                                  build/obj/chvt.o
                                                  build/obj/chsys.o
chDbgCheckClassS                                  build/obj/chdebug.o
                                                  build/obj/chmboxes.o
                                                  build/obj/chcond.o
                                                  build/obj/chmtx.o
                                                  build/obj/chsem.o
                                                  build/obj/chschd.o
chDbgPanic                                        build/obj/chdebug.o
                                                  build/obj/ch.o
                                                  build/obj/pwm_generator_logic.o
                                                  build/obj/pwm_lld.o
                                                  build/obj/icu_lld.o
                                                  build/obj/spi_lld.o
                                                  build/obj/usb_lld.o
                                                  build/obj/i2c_lld.o
                                                  build/obj/can_lld.o
                                                  build/obj/adc_lld.o
                                                  build/obj/stm32_dma.o
                                                  build/obj/advance_map.o
                                                  build/obj/pwm_generator.o
                                                  build/obj/usb.o
                                                  build/obj/spi.o
                                                  build/obj/serial_usb.o
                                                  build/obj/serial.o
                                                  build/obj/pwm.o
                                                  build/obj/mmc_spi.o
                                                  build/obj/icu.o
                                                  build/obj/i2c.o
                                                  build/obj/can.o
                                                  build/obj/adc.o
                                                  build/obj/chheap.o
                                                  build/obj/chmsg.o
                                                  build/obj/chevents.o
                                                  build/obj/chcond.o
                                                  build/obj/chmtx.o
                                                  build/obj/chsem.o
                                                  build/obj/chregistry.o
                                                  build/obj/chdynamic.o
                                                  build/obj/chthreads.o
                                                  build/obj/chschd.o
                                                  build/obj/chvt.o
chDbgPanic3                                       build/obj/rusefi.o
                                                  build/obj/engine_math.o
                                                  build/obj/main_trigger_callback.o
                                                  build/obj/trigger_decoder.o
                                                  build/obj/pwm_generator_logic.o
                                                  build/obj/trigger_structure.o
                                                  build/obj/trigger_central.o
                                                  build/obj/rtc_lld.o
                                                  build/obj/i2c_lld.o
                                                  build/obj/can_lld.o
                                                  build/obj/stm32_dma.o
                                                  build/obj/thermistors.o
                                                  build/obj/wave_chart.o
                                                  build/obj/signal_executor.o
                                                  build/obj/engine_configuration.o
                                                  build/obj/fuel_math.o
                                                  build/obj/injector_central.o
                                                  build/obj/lcd_HD44780.o
                                                  build/obj/mcp3208.o
                                                  build/obj/io_pins.o
                                                  build/obj/wave_analyzer.o
                                                  build/obj/usb.o
                                                  build/obj/spi.o
                                                  build/obj/serial_usb.o
                                                  build/obj/serial.o
                                                  build/obj/rtc.o
                                                  build/obj/pwm.o
                                                  build/obj/pal.o
                                                  build/obj/mmcsd.o
                                                  build/obj/mmc_spi.o
                                                  build/obj/icu.o
                                                  build/obj/i2c.o
                                                  build/obj/can.o
                                                  build/obj/adc.o
                                                  build/obj/datalogging.o
                                                  build/obj/eficonsole.o
                                                  build/obj/histogram.o
                                                  build/obj/chmempools.o
                                                  build/obj/chheap.o
                                                  build/obj/chqueues.o
                                                  build/obj/chmboxes.o
                                                  build/obj/chmsg.o
                                                  build/obj/chevents.o
                                                  build/obj/chcond.o
                                                  build/obj/chmtx.o
                                                  build/obj/chsem.o
                                                  build/obj/chdynamic.o
                                                  build/obj/chthreads.o
                                                  build/obj/chvt.o
                                                  build/obj/chdebug.o
chDbgStackOverflowPanic                           build/obj/rusefi.o
                                                  build/obj/chschd.o
chEvtAddEvents                                    build/obj/chevents.o
                                                  build/obj/ch.o
chEvtBroadcastFlags                               build/obj/chevents.o
                                                  build/obj/ch.o
chEvtBroadcastFlagsI                              build/obj/chevents.o
                                                  build/obj/ch.o
                                                  build/obj/serial_lld.o
                                                  build/obj/can_lld.o
                                                  build/obj/serial_usb.o
                                                  build/obj/serial.o
                                                  build/obj/can.o
chEvtDispatch                                     build/obj/chevents.o
                                                  build/obj/ch.o
chEvtGetAndClearEvents                            build/obj/chevents.o
                                                  build/obj/ch.o
chEvtGetAndClearFlags                             build/obj/chevents.o
                                                  build/obj/ch.o
chEvtGetAndClearFlagsI                            build/obj/chevents.o
                                                  build/obj/ch.o
chEvtRegisterMask                                 build/obj/chevents.o
                                                  build/obj/ch.o
chEvtSignal                                       build/obj/chevents.o
                                                  build/obj/ch.o
chEvtSignalI                                      build/obj/chevents.o
                                                  build/obj/ch.o
chEvtUnregister                                   build/obj/chevents.o
                                                  build/obj/ch.o
chEvtWaitAll                                      build/obj/chevents.o
                                                  build/obj/ch.o
chEvtWaitAllTimeout                               build/obj/chevents.o
                                                  build/obj/ch.o
chEvtWaitAny                                      build/obj/chevents.o
                                                  build/obj/ch.o
chEvtWaitAnyTimeout                               build/obj/chevents.o
                                                  build/obj/ch.o
chEvtWaitOne                                      build/obj/chevents.o
                                                  build/obj/ch.o
chEvtWaitOneTimeout                               build/obj/chevents.o
                                                  build/obj/ch.o
chHeapAlloc                                       build/obj/chheap.o
                                                  build/obj/fatfs_syscall.o
                                                  build/obj/chdynamic.o
chHeapFree                                        build/obj/chheap.o
                                                  build/obj/fatfs_syscall.o
                                                  build/obj/chdynamic.o
chHeapInit                                        build/obj/chheap.o
chHeapStatus                                      build/obj/chheap.o
chIQGetTimeout                                    build/obj/chqueues.o
                                                  build/obj/ch.o
                                                  build/obj/serial_usb.o
                                                  build/obj/serial.o
chIQInit                                          build/obj/chqueues.o
                                                  build/obj/ch.o
                                                  build/obj/serial_usb.o
                                                  build/obj/serial.o
chIQPutI                                          build/obj/chqueues.o
                                                  build/obj/ch.o
                                                  build/obj/serial.o
chIQReadTimeout                                   build/obj/chqueues.o
                                                  build/obj/ch.o
                                                  build/obj/serial_usb.o
                                                  build/obj/serial.o
chIQResetI                                        build/obj/chqueues.o
                                                  build/obj/ch.o
                                                  build/obj/serial_usb.o
                                                  build/obj/serial.o
chMBFetch                                         build/obj/chmboxes.o
                                                  build/obj/ch.o
chMBFetchI                                        build/obj/chmboxes.o
                                                  build/obj/ch.o
chMBFetchS                                        build/obj/chmboxes.o
                                                  build/obj/ch.o
chMBInit                                          build/obj/chmboxes.o
                                                  build/obj/ch.o
chMBPost                                          build/obj/chmboxes.o
                                                  build/obj/ch.o
chMBPostAhead                                     build/obj/chmboxes.o
                                                  build/obj/ch.o
chMBPostAheadI                                    build/obj/chmboxes.o
                                                  build/obj/ch.o
chMBPostAheadS                                    build/obj/chmboxes.o
                                                  build/obj/ch.o
chMBPostI                                         build/obj/chmboxes.o
                                                  build/obj/ch.o
chMBPostS                                         build/obj/chmboxes.o
                                                  build/obj/ch.o
chMBReset                                         build/obj/chmboxes.o
                                                  build/obj/ch.o
chMsgRelease                                      build/obj/chmsg.o
                                                  build/obj/ch.o
chMsgSend                                         build/obj/chmsg.o
                                                  build/obj/ch.o
chMsgWait                                         build/obj/chmsg.o
                                                  build/obj/ch.o
chMtxInit                                         build/obj/chmtx.o
                                                  build/obj/ch.o
                                                  build/obj/spi.o
                                                  build/obj/i2c.o
                                                  build/obj/adc.o
                                                  build/obj/chheap.o
chMtxLock                                         build/obj/chmtx.o
                                                  build/obj/ch.o
                                                  build/obj/spi.o
                                                  build/obj/i2c.o
                                                  build/obj/adc.o
                                                  build/obj/chheap.o
chMtxLockS                                        build/obj/chmtx.o
                                                  build/obj/ch.o
                                                  build/obj/chcond.o
chMtxTryLock                                      build/obj/chmtx.o
                                                  build/obj/ch.o
chMtxTryLockS                                     build/obj/chmtx.o
                                                  build/obj/ch.o
chMtxUnlock                                       build/obj/chmtx.o
                                                  build/obj/ch.o
                                                  build/obj/spi.o
                                                  build/obj/i2c.o
                                                  build/obj/adc.o
                                                  build/obj/chheap.o
chMtxUnlockAll                                    build/obj/chmtx.o
                                                  build/obj/ch.o
chMtxUnlockS                                      build/obj/chmtx.o
                                                  build/obj/ch.o
                                                  build/obj/chcond.o
chOQGetI                                          build/obj/chqueues.o
                                                  build/obj/ch.o
                                                  build/obj/serial_lld.o
                                                  build/obj/serial.o
chOQInit                                          build/obj/chqueues.o
                                                  build/obj/ch.o
                                                  build/obj/serial_usb.o
                                                  build/obj/serial.o
chOQPutTimeout                                    build/obj/chqueues.o
                                                  build/obj/ch.o
                                                  build/obj/serial_usb.o
                                                  build/obj/serial.o
chOQResetI                                        build/obj/chqueues.o
                                                  build/obj/ch.o
                                                  build/obj/serial_usb.o
                                                  build/obj/serial.o
chOQWriteTimeout                                  build/obj/chqueues.o
                                                  build/obj/ch.o
                                                  build/obj/serial_usb.o
                                                  build/obj/serial.o
chPoolAlloc                                       build/obj/chmempools.o
                                                  build/obj/ch.o
                                                  build/obj/chdynamic.o
chPoolAllocI                                      build/obj/chmempools.o
                                                  build/obj/ch.o
chPoolFree                                        build/obj/chmempools.o
                                                  build/obj/ch.o
                                                  build/obj/chdynamic.o
chPoolFreeI                                       build/obj/chmempools.o
                                                  build/obj/ch.o
chPoolInit                                        build/obj/chmempools.o
                                                  build/obj/ch.o
chPoolLoadArray                                   build/obj/chmempools.o
                                                  build/obj/ch.o
chRegFirstThread                                  build/obj/chregistry.o
                                                  build/obj/eficonsole.o
chRegNextThread                                   build/obj/chregistry.o
                                                  build/obj/eficonsole.o
chSchDoReschedule                                 build/obj/chschd.o
                                                  build/obj/chcore_v7m.o
chSchDoRescheduleAhead                            build/obj/chschd.o
chSchDoRescheduleBehind                           build/obj/chschd.o
                                                  build/obj/chthreads.o
chSchGoSleepS                                     build/obj/chschd.o
                                                  build/obj/ch.o
                                                  build/obj/usb_lld.o
                                                  build/obj/i2c_lld.o
                                                  build/obj/spi.o
                                                  build/obj/adc.o
                                                  build/obj/chmsg.o
                                                  build/obj/chevents.o
                                                  build/obj/chcond.o
                                                  build/obj/chmtx.o
                                                  build/obj/chsem.o
                                                  build/obj/chthreads.o
chSchGoSleepTimeoutS                              build/obj/chschd.o
                                                  build/obj/can_lld.o
                                                  build/obj/can.o
                                                  build/obj/chqueues.o
                                                  build/obj/chevents.o
                                                  build/obj/chcond.o
                                                  build/obj/chsem.o
                                                  build/obj/chthreads.o
chSchReadyI                                       build/obj/chschd.o
                                                  build/obj/ch.o
                                                  build/obj/spi_lld.o
                                                  build/obj/usb_lld.o
                                                  build/obj/i2c_lld.o
                                                  build/obj/adc_lld.o
                                                  build/obj/adc.o
                                                  build/obj/chqueues.o
                                                  build/obj/chmsg.o
                                                  build/obj/chevents.o
                                                  build/obj/chcond.o
                                                  build/obj/chmtx.o
                                                  build/obj/chsem.o
                                                  build/obj/chthreads.o
chSchRescheduleS                                  build/obj/chschd.o
                                                  build/obj/ch.o
                                                  build/obj/usb_lld.o
                                                  build/obj/serial_usb.o
                                                  build/obj/serial.o
                                                  build/obj/can.o
                                                  build/obj/chmboxes.o
                                                  build/obj/chevents.o
                                                  build/obj/chcond.o
                                                  build/obj/chmtx.o
                                                  build/obj/chsem.o
                                                  build/obj/chthreads.o
chSchWakeupS                                      build/obj/chschd.o
                                                  build/obj/ch.o
                                                  build/obj/adc.o
                                                  build/obj/chmsg.o
                                                  build/obj/chcond.o
                                                  build/obj/chmtx.o
                                                  build/obj/chsem.o
                                                  build/obj/chdynamic.o
                                                  build/obj/chthreads.o
chSemAddCounterI                                  build/obj/chsem.o
                                                  build/obj/ch.o
chSemInit                                         build/obj/chsem.o
                                                  build/obj/ch.o
                                                  build/obj/can.o
                                                  build/obj/chmboxes.o
chSemReset                                        build/obj/chsem.o
                                                  build/obj/ch.o
chSemResetI                                       build/obj/chsem.o
                                                  build/obj/ch.o
                                                  build/obj/can.o
                                                  build/obj/chmboxes.o
chSemSignal                                       build/obj/chsem.o
                                                  build/obj/ch.o
chSemSignalI                                      build/obj/chsem.o
                                                  build/obj/ch.o
                                                  build/obj/can_lld.o
                                                  build/obj/chmboxes.o
chSemSignalWait                                   build/obj/chsem.o
                                                  build/obj/ch.o
chSemWait                                         build/obj/chsem.o
                                                  build/obj/ch.o
chSemWaitS                                        build/obj/chsem.o
                                                  build/obj/ch.o
chSemWaitTimeout                                  build/obj/chsem.o
                                                  build/obj/ch.o
chSemWaitTimeoutS                                 build/obj/chsem.o
                                                  build/obj/ch.o
                                                  build/obj/can.o
                                                  build/obj/chmboxes.o
chSysInit                                         build/obj/chsys.o
                                                  build/obj/main.o
                                                  build/obj/ch.o
chSysTimerHandlerI                                build/obj/chsys.o
                                                  build/obj/chcore_v7m.o
chThdAddRef                                       build/obj/chdynamic.o
chThdCreateFromHeap                               build/obj/chdynamic.o
chThdCreateFromMemoryPool                         build/obj/chdynamic.o
chThdCreateI                                      build/obj/chthreads.o
                                                  build/obj/usb_lld.o
                                                  build/obj/chdynamic.o
chThdCreateStatic                                 build/obj/chthreads.o
                                                  build/obj/engine_controller.o
                                                  build/obj/engine_emulator.o
                                                  build/obj/pwm_generator_logic.o
                                                  build/obj/map_multiplier_thread.o
                                                  build/obj/malfunction_indicator.o
                                                  build/obj/injector_central.o
                                                  build/obj/idle_thread.o
                                                  build/obj/neo6m.o
                                                  build/obj/mmc_card.o
                                                  build/obj/io_pins.o
                                                  build/obj/wave_analyzer.o
                                                  build/obj/tunerstudio.o
                                                  build/obj/status_loop.o
                                                  build/obj/console_io.o
                                                  build/obj/chsys.o
chThdExit                                         build/obj/chthreads.o
                                                  build/obj/ch.o
                                                  build/obj/chcore_v7m.o
chThdExitS                                        build/obj/chthreads.o
                                                  build/obj/ch.o
chThdRelease                                      build/obj/chdynamic.o
                                                  build/obj/chregistry.o
                                                  build/obj/chthreads.o
chThdResume                                       build/obj/chthreads.o
chThdSetPriority                                  build/obj/chthreads.o
                                                  build/obj/ch.o
chThdSleep                                        build/obj/chthreads.o
                                                  build/obj/rusefi.o
                                                  build/obj/engine_controller.o
                                                  build/obj/engine_emulator.o
                                                  build/obj/ch.o
                                                  build/obj/pwm_generator_logic.o
                                                  build/obj/map_multiplier_thread.o
                                                  build/obj/malfunction_indicator.o
                                                  build/obj/injector_central.o
                                                  build/obj/idle_thread.o
                                                  build/obj/mmc_card.o
                                                  build/obj/usbconsole.o
                                                  build/obj/lcd_HD44780.o
                                                  build/obj/io_pins.o
                                                  build/obj/wave_analyzer.o
                                                  build/obj/mmc_spi.o
                                                  build/obj/status_loop.o
                                                  build/obj/console_io.o
                                                  build/obj/eficonsole.o
chThdSleepUntil                                   build/obj/chthreads.o
                                                  build/obj/ch.o
chThdTerminate                                    build/obj/chthreads.o
                                                  build/obj/ch.o
chThdWait                                         build/obj/chthreads.o
                                                  build/obj/ch.o
chThdYield                                        build/obj/chthreads.o
                                                  build/obj/ch.o
chVTResetI                                        build/obj/chvt.o
                                                  build/obj/ch.o
                                                  build/obj/signal_executor_sleep.o
                                                  build/obj/i2c_lld.o
                                                  build/obj/rfiutil.o
                                                  build/obj/chschd.o
chVTSetAny                                        build/obj/rfiutil.o
                                                  build/obj/engine_controller.o
chVTSetI                                          build/obj/chvt.o
                                                  build/obj/rusefi.o
                                                  build/obj/ch.o
                                                  build/obj/signal_executor_sleep.o
                                                  build/obj/i2c_lld.o
                                                  build/obj/rfiutil.o
                                                  build/obj/chschd.o
ch_debug                                          build/obj/chregistry.o
                                                  build/obj/chsys.o
checkSwitchTimes                                  build/obj/trigger_structure.o
                                                  build/obj/trigger_decoder.o
                                                  build/obj/pwm_generator_logic.o
chibios_rt::BaseThread::BaseThread()              build/obj/ch.o
chibios_rt::BaseThread::BaseThread()              build/obj/ch.o
chibios_rt::BaseThread::addEvents(unsigned long)  build/obj/ch.o
chibios_rt::BaseThread::dispatchEvents(void (* const*)(long), unsigned long) build/obj/ch.o
chibios_rt::BaseThread::exit(long)                build/obj/ch.o
chibios_rt::BaseThread::exitS(long)               build/obj/ch.o
chibios_rt::BaseThread::getAndClearEvents(unsigned long) build/obj/ch.o
chibios_rt::BaseThread::main()                    build/obj/ch.o
chibios_rt::BaseThread::setName(char const*)      build/obj/ch.o
chibios_rt::BaseThread::setPriority(unsigned long) build/obj/ch.o
chibios_rt::BaseThread::shouldTerminate()         build/obj/ch.o
chibios_rt::BaseThread::sleep(unsigned long)      build/obj/ch.o
chibios_rt::BaseThread::sleepUntil(unsigned long) build/obj/ch.o
chibios_rt::BaseThread::start(unsigned long)      build/obj/ch.o
chibios_rt::BaseThread::unlockAllMutexes()        build/obj/ch.o
chibios_rt::BaseThread::unlockMutex()             build/obj/ch.o
chibios_rt::BaseThread::unlockMutexS()            build/obj/ch.o
chibios_rt::BaseThread::waitAllEvents(unsigned long) build/obj/ch.o
chibios_rt::BaseThread::waitAllEventsTimeout(unsigned long, unsigned long) build/obj/ch.o
chibios_rt::BaseThread::waitAnyEvent(unsigned long) build/obj/ch.o
chibios_rt::BaseThread::waitAnyEventTimeout(unsigned long, unsigned long) build/obj/ch.o
chibios_rt::BaseThread::waitMessage()             build/obj/ch.o
chibios_rt::BaseThread::waitOneEvent(unsigned long) build/obj/ch.o
chibios_rt::BaseThread::waitOneEventTimeout(unsigned long, unsigned long) build/obj/ch.o
chibios_rt::BaseThread::yield()                   build/obj/ch.o
chibios_rt::BinarySemaphore::BinarySemaphore(bool) build/obj/ch.o
chibios_rt::BinarySemaphore::BinarySemaphore(bool) build/obj/ch.o
chibios_rt::BinarySemaphore::getStateI()          build/obj/ch.o
chibios_rt::BinarySemaphore::reset(bool)          build/obj/ch.o
chibios_rt::BinarySemaphore::resetI(bool)         build/obj/ch.o
chibios_rt::BinarySemaphore::signal()             build/obj/ch.o
chibios_rt::BinarySemaphore::signalI()            build/obj/ch.o
chibios_rt::BinarySemaphore::wait()               build/obj/ch.o
chibios_rt::BinarySemaphore::waitS()              build/obj/ch.o
chibios_rt::BinarySemaphore::waitTimeout(unsigned long) build/obj/ch.o
chibios_rt::BinarySemaphore::waitTimeoutS(unsigned long) build/obj/ch.o
chibios_rt::CondVar::CondVar()                    build/obj/ch.o
chibios_rt::CondVar::CondVar()                    build/obj/ch.o
chibios_rt::CondVar::broadcast()                  build/obj/ch.o
chibios_rt::CondVar::broadcastI()                 build/obj/ch.o
chibios_rt::CondVar::signal()                     build/obj/ch.o
chibios_rt::CondVar::signalI()                    build/obj/ch.o
chibios_rt::CondVar::wait()                       build/obj/ch.o
chibios_rt::CondVar::waitS()                      build/obj/ch.o
chibios_rt::CondVar::waitTimeout(unsigned long)   build/obj/ch.o
chibios_rt::Core::alloc(unsigned int)             build/obj/ch.o
chibios_rt::Core::allocI(unsigned int)            build/obj/ch.o
chibios_rt::Core::getStatus()                     build/obj/ch.o
chibios_rt::CounterSemaphore::CounterSemaphore(long) build/obj/ch.o
chibios_rt::CounterSemaphore::CounterSemaphore(long) build/obj/ch.o
chibios_rt::CounterSemaphore::addCounterI(long)   build/obj/ch.o
chibios_rt::CounterSemaphore::getCounterI()       build/obj/ch.o
chibios_rt::CounterSemaphore::reset(long)         build/obj/ch.o
chibios_rt::CounterSemaphore::resetI(long)        build/obj/ch.o
chibios_rt::CounterSemaphore::signal()            build/obj/ch.o
chibios_rt::CounterSemaphore::signalI()           build/obj/ch.o
chibios_rt::CounterSemaphore::signalWait(chibios_rt::CounterSemaphore*, chibios_rt::CounterSemaphore*) build/obj/ch.o
chibios_rt::CounterSemaphore::wait()              build/obj/ch.o
chibios_rt::CounterSemaphore::waitS()             build/obj/ch.o
chibios_rt::CounterSemaphore::waitTimeout(unsigned long) build/obj/ch.o
chibios_rt::CounterSemaphore::waitTimeoutS(unsigned long) build/obj/ch.o
chibios_rt::EvtListener::getAndClearFlags()       build/obj/ch.o
chibios_rt::EvtListener::getAndClearFlagsI()      build/obj/ch.o
chibios_rt::EvtSource::EvtSource()                build/obj/ch.o
chibios_rt::EvtSource::EvtSource()                build/obj/ch.o
chibios_rt::EvtSource::broadcastFlags(unsigned long) build/obj/ch.o
chibios_rt::EvtSource::broadcastFlagsI(unsigned long) build/obj/ch.o
chibios_rt::EvtSource::registerMask(chibios_rt::EvtListener*, unsigned long) build/obj/ch.o
chibios_rt::EvtSource::registerOne(chibios_rt::EvtListener*, long) build/obj/ch.o
chibios_rt::EvtSource::unregister(chibios_rt::EvtListener*) build/obj/ch.o
chibios_rt::InQueue::InQueue(unsigned char*, unsigned int, void (*)(GenericQueue*), void*) build/obj/ch.o
chibios_rt::InQueue::InQueue(unsigned char*, unsigned int, void (*)(GenericQueue*), void*) build/obj/ch.o
chibios_rt::InQueue::get()                        build/obj/ch.o
chibios_rt::InQueue::getEmptyI()                  build/obj/ch.o
chibios_rt::InQueue::getFullI()                   build/obj/ch.o
chibios_rt::InQueue::getTimeout(unsigned long)    build/obj/ch.o
chibios_rt::InQueue::isEmptyI()                   build/obj/ch.o
chibios_rt::InQueue::isFullI()                    build/obj/ch.o
chibios_rt::InQueue::putI(unsigned char)          build/obj/ch.o
chibios_rt::InQueue::readTimeout(unsigned char*, unsigned int, unsigned long) build/obj/ch.o
chibios_rt::InQueue::resetI()                     build/obj/ch.o
chibios_rt::Mailbox::Mailbox(long*, long)         build/obj/ch.o
chibios_rt::Mailbox::Mailbox(long*, long)         build/obj/ch.o
chibios_rt::Mailbox::fetch(long*, unsigned long)  build/obj/ch.o
chibios_rt::Mailbox::fetchI(long*)                build/obj/ch.o
chibios_rt::Mailbox::fetchS(long*, unsigned long) build/obj/ch.o
chibios_rt::Mailbox::getFreeCountI()              build/obj/ch.o
chibios_rt::Mailbox::getUsedCountI()              build/obj/ch.o
chibios_rt::Mailbox::post(long, unsigned long)    build/obj/ch.o
chibios_rt::Mailbox::postAhead(long, unsigned long) build/obj/ch.o
chibios_rt::Mailbox::postAheadI(long)             build/obj/ch.o
chibios_rt::Mailbox::postAheadS(long, unsigned long) build/obj/ch.o
chibios_rt::Mailbox::postI(long)                  build/obj/ch.o
chibios_rt::Mailbox::postS(long, unsigned long)   build/obj/ch.o
chibios_rt::Mailbox::reset()                      build/obj/ch.o
chibios_rt::MemoryPool::MemoryPool(unsigned int, void* (*)(unsigned int)) build/obj/ch.o
chibios_rt::MemoryPool::MemoryPool(unsigned int, void* (*)(unsigned int)) build/obj/ch.o
chibios_rt::MemoryPool::MemoryPool(unsigned int, void* (*)(unsigned int), void*, unsigned int) build/obj/ch.o
chibios_rt::MemoryPool::MemoryPool(unsigned int, void* (*)(unsigned int), void*, unsigned int) build/obj/ch.o
chibios_rt::MemoryPool::alloc()                   build/obj/ch.o
chibios_rt::MemoryPool::allocI()                  build/obj/ch.o
chibios_rt::MemoryPool::free(void*)               build/obj/ch.o
chibios_rt::MemoryPool::freeI(void*)              build/obj/ch.o
chibios_rt::MemoryPool::loadArray(void*, unsigned int) build/obj/ch.o
chibios_rt::Mutex::Mutex()                        build/obj/ch.o
chibios_rt::Mutex::Mutex()                        build/obj/ch.o
chibios_rt::Mutex::lock()                         build/obj/ch.o
chibios_rt::Mutex::lockS()                        build/obj/ch.o
chibios_rt::Mutex::tryLock()                      build/obj/ch.o
chibios_rt::Mutex::tryLockS()                     build/obj/ch.o
chibios_rt::OutQueue::OutQueue(unsigned char*, unsigned int, void (*)(GenericQueue*), void*) build/obj/ch.o
chibios_rt::OutQueue::OutQueue(unsigned char*, unsigned int, void (*)(GenericQueue*), void*) build/obj/ch.o
chibios_rt::OutQueue::getEmptyI()                 build/obj/ch.o
chibios_rt::OutQueue::getFullI()                  build/obj/ch.o
chibios_rt::OutQueue::getI()                      build/obj/ch.o
chibios_rt::OutQueue::isEmptyI()                  build/obj/ch.o
chibios_rt::OutQueue::isFullI()                   build/obj/ch.o
chibios_rt::OutQueue::put(unsigned char)          build/obj/ch.o
chibios_rt::OutQueue::putTimeout(unsigned char, unsigned long) build/obj/ch.o
chibios_rt::OutQueue::resetI()                    build/obj/ch.o
chibios_rt::OutQueue::writeTimeout(unsigned char const*, unsigned int, unsigned long) build/obj/ch.o
chibios_rt::System::getTime()                     build/obj/ch.o
chibios_rt::System::init()                        build/obj/ch.o
chibios_rt::System::isTimeWithin(unsigned long, unsigned long) build/obj/ch.o
chibios_rt::System::lock()                        build/obj/ch.o
chibios_rt::System::lockFromIsr()                 build/obj/ch.o
chibios_rt::System::unlock()                      build/obj/ch.o
chibios_rt::System::unlockFromIsr()               build/obj/ch.o
chibios_rt::ThreadReference::ThreadReference(Thread*) build/obj/ch.o
chibios_rt::ThreadReference::ThreadReference(Thread*) build/obj/ch.o
chibios_rt::ThreadReference::ThreadReference(chibios_rt::ThreadReference const&) build/obj/ch.o
chibios_rt::ThreadReference::ThreadReference(chibios_rt::ThreadReference const&) build/obj/ch.o
chibios_rt::ThreadReference::getMessage()         build/obj/ch.o
chibios_rt::ThreadReference::isPendingMessage()   build/obj/ch.o
chibios_rt::ThreadReference::releaseMessage(long) build/obj/ch.o
chibios_rt::ThreadReference::requestTerminate()   build/obj/ch.o
chibios_rt::ThreadReference::resume(long)         build/obj/ch.o
chibios_rt::ThreadReference::resumeI(long)        build/obj/ch.o
chibios_rt::ThreadReference::sendMessage(long)    build/obj/ch.o
chibios_rt::ThreadReference::signalEvents(unsigned long) build/obj/ch.o
chibios_rt::ThreadReference::signalEventsI(unsigned long) build/obj/ch.o
chibios_rt::ThreadReference::stop()               build/obj/ch.o
chibios_rt::ThreadReference::suspend()            build/obj/ch.o
chibios_rt::ThreadReference::suspendS()           build/obj/ch.o
chibios_rt::ThreadReference::wait()               build/obj/ch.o
chibios_rt::Timer::isArmedI()                     build/obj/ch.o
chibios_rt::Timer::resetI()                       build/obj/ch.o
chibios_rt::Timer::setI(unsigned long, void (*)(void*), void*) build/obj/ch.o
chibios_rt::_thd_start(void*)                     build/obj/ch.o
chvprintf                                         build/obj/chprintf.o
                                                  build/obj/rusefi.o
                                                  build/obj/pin_repository.o
                                                  build/obj/datalogging.o
                                                  build/obj/eficonsole.o
cisnan                                            build/obj/engine_math.o
                                                  build/obj/pwm_generator_logic.o
                                                  build/obj/thermistors.o
                                                  build/obj/interpolation.o
                                                  build/obj/fuel_math.o
clearTriggerState                                 build/obj/trigger_structure.o
                                                  build/obj/trigger_decoder.o
                                                  build/obj/trigger_central.o
clust2sect                                        build/obj/ff.o
configWorkingCopy                                 build/obj/tunerstudio_algo.o
                                                  build/obj/tunerstudio.o
configuration                                     build/obj/trigger_emulator_algo.o
                                                  build/obj/trigger_emulator.o
configureGmTriggerShape                           build/obj/trigger_gm.o
                                                  build/obj/trigger_decoder.o
configureMazdaProtegeLx                           build/obj/trigger_mazda.o
                                                  build/obj/trigger_decoder.o
configureNeonTriggerShape                         build/obj/trigger_chrysler.o
                                                  build/obj/trigger_decoder.o
consoleOutputBuffer                               build/obj/console_io.o
                                                  build/obj/datalogging.o
consolePutChar                                    build/obj/console_io.o
console_line_callback                             build/obj/console_io.o
convertCelciustoF                                 build/obj/thermistors.o
convertCelciustoKelvin                            build/obj/thermistors.o
convertFtoCelcius                                 build/obj/thermistors.o
convertKelvinToC                                  build/obj/thermistors.o
convertKelvinToFahrenheit                         build/obj/thermistors.o
convertResistanceToKelvinTemperature              build/obj/thermistors.o
convertVoltageTo10bitADC                          build/obj/tps.o
                                                  build/obj/engine_configuration.o
                                                  build/obj/ford_1995_inline_6.o
copyPwmParameters                                 build/obj/pwm_generator_logic.o
                                                  build/obj/trigger_emulator_algo.o
copysign                                          c:/chibistudio/tools/gnu tools arm embedded/4.7 2013q2/bin/../lib/gcc/arm-none-eabi/4.7.4/../../../../arm-none-eabi/lib/armv7e-m\libm.a(lib_a-s_copysign.o)
                                                  c:/chibistudio/tools/gnu tools arm embedded/4.7 2013q2/bin/../lib/gcc/arm-none-eabi/4.7.4/../../../../arm-none-eabi/lib/armv7e-m\libm.a(lib_a-s_scalbn.o)
count                                             build/obj/injector_central.o
cyclic_buffer::add(int)                           build/obj/cyclic_buffer.o
                                                  build/obj/main_trigger_callback.o
                                                  build/obj/trigger_decoder.o
cyclic_buffer::clear()                            build/obj/cyclic_buffer.o
                                                  build/obj/trigger_decoder.o
cyclic_buffer::cyclic_buffer()                    build/obj/cyclic_buffer.o
cyclic_buffer::cyclic_buffer()                    build/obj/cyclic_buffer.o
                                                  build/obj/main_trigger_callback.o
                                                  build/obj/trigger_decoder.o
cyclic_buffer::cyclic_buffer(cyclic_buffer const&) build/obj/cyclic_buffer.o
cyclic_buffer::cyclic_buffer(cyclic_buffer const&) build/obj/cyclic_buffer.o
cyclic_buffer::operator=(cyclic_buffer const&)    build/obj/cyclic_buffer.o
cyclic_buffer::sum(int)                           build/obj/cyclic_buffer.o
                                                  build/obj/main_trigger_callback.o
                                                  build/obj/trigger_decoder.o
cyclic_buffer::~cyclic_buffer()                   build/obj/cyclic_buffer.o
cyclic_buffer::~cyclic_buffer()                   build/obj/cyclic_buffer.o
                                                  build/obj/main_trigger_callback.o
                                                  build/obj/trigger_decoder.o
dateToString                                      build/obj/rtc_helper.o
                                                  build/obj/status_loop.o
date_get_tm                                       build/obj/rtc_helper.o
                                                  build/obj/neo6m.o
date_set_tm                                       build/obj/rtc_helper.o
                                                  build/obj/neo6m.o
dbAdd                                             build/obj/data_buffer.o
dbClear                                           build/obj/data_buffer.o
dbCopy                                            build/obj/data_buffer.o
dbIsFull                                          build/obj/data_buffer.o
dbPrint                                           build/obj/data_buffer.o
dbPrintTable                                      build/obj/data_buffer.o
dbg_check_disable                                 build/obj/chdebug.o
dbg_check_enable                                  build/obj/chdebug.o
                                                  build/obj/chsys.o
dbg_check_enter_isr                               build/obj/chdebug.o
                                                  build/obj/serial_lld.o
                                                  build/obj/pwm_lld.o
                                                  build/obj/icu_lld.o
                                                  build/obj/usb_lld.o
                                                  build/obj/i2c_lld.o
                                                  build/obj/can_lld.o
                                                  build/obj/adc_lld.o
                                                  build/obj/stm32_dma.o
                                                  build/obj/chcore_v7m.o
dbg_check_leave_isr                               build/obj/chdebug.o
                                                  build/obj/serial_lld.o
                                                  build/obj/pwm_lld.o
                                                  build/obj/icu_lld.o
                                                  build/obj/usb_lld.o
                                                  build/obj/i2c_lld.o
                                                  build/obj/can_lld.o
                                                  build/obj/adc_lld.o
                                                  build/obj/stm32_dma.o
                                                  build/obj/chcore_v7m.o
dbg_check_lock                                    build/obj/chdebug.o
                                                  build/obj/rfi_perftest.o
                                                  build/obj/ch.o
                                                  build/obj/rtc_lld.o
                                                  build/obj/usb_lld.o
                                                  build/obj/i2c_lld.o
                                                  build/obj/usb.o
                                                  build/obj/spi.o
                                                  build/obj/serial_usb.o
                                                  build/obj/serial.o
                                                  build/obj/rtc.o
                                                  build/obj/pwm.o
                                                  build/obj/mmc_spi.o
                                                  build/obj/icu.o
                                                  build/obj/i2c.o
                                                  build/obj/can.o
                                                  build/obj/adc.o
                                                  build/obj/rfiutil.o
                                                  build/obj/datalogging.o
                                                  build/obj/console_io.o
                                                  build/obj/chmempools.o
                                                  build/obj/chmemcore.o
                                                  build/obj/chqueues.o
                                                  build/obj/chmboxes.o
                                                  build/obj/chmsg.o
                                                  build/obj/chevents.o
                                                  build/obj/chcond.o
                                                  build/obj/chmtx.o
                                                  build/obj/chsem.o
                                                  build/obj/chregistry.o
                                                  build/obj/chdynamic.o
                                                  build/obj/chthreads.o
                                                  build/obj/chcore_v7m.o
dbg_check_lock_from_isr                           build/obj/chdebug.o
                                                  build/obj/ch.o
                                                  build/obj/serial_lld.o
                                                  build/obj/spi_lld.o
                                                  build/obj/usb_lld.o
                                                  build/obj/i2c_lld.o
                                                  build/obj/can_lld.o
                                                  build/obj/adc_lld.o
                                                  build/obj/map_averaging.o
                                                  build/obj/usbcfg.o
                                                  build/obj/adc_inputs.o
                                                  build/obj/usb.o
                                                  build/obj/serial_usb.o
                                                  build/obj/rfiutil.o
                                                  build/obj/datalogging.o
                                                  build/obj/console_io.o
                                                  build/obj/chschd.o
                                                  build/obj/chsys.o
                                                  build/obj/chcore_v7m.o
dbg_check_suspend                                 build/obj/chdebug.o
dbg_check_unlock                                  build/obj/chdebug.o
                                                  build/obj/rfi_perftest.o
                                                  build/obj/ch.o
                                                  build/obj/rtc_lld.o
                                                  build/obj/usb_lld.o
                                                  build/obj/i2c_lld.o
                                                  build/obj/usb.o
                                                  build/obj/spi.o
                                                  build/obj/serial_usb.o
                                                  build/obj/serial.o
                                                  build/obj/rtc.o
                                                  build/obj/pwm.o
                                                  build/obj/mmc_spi.o
                                                  build/obj/icu.o
                                                  build/obj/i2c.o
                                                  build/obj/can.o
                                                  build/obj/adc.o
                                                  build/obj/rfiutil.o
                                                  build/obj/datalogging.o
                                                  build/obj/console_io.o
                                                  build/obj/chmempools.o
                                                  build/obj/chmemcore.o
                                                  build/obj/chqueues.o
                                                  build/obj/chmboxes.o
                                                  build/obj/chmsg.o
                                                  build/obj/chevents.o
                                                  build/obj/chcond.o
                                                  build/obj/chmtx.o
                                                  build/obj/chsem.o
                                                  build/obj/chregistry.o
                                                  build/obj/chdynamic.o
                                                  build/obj/chthreads.o
                                                  build/obj/chcore_v7m.o
dbg_check_unlock_from_isr                         build/obj/chdebug.o
                                                  build/obj/ch.o
                                                  build/obj/serial_lld.o
                                                  build/obj/spi_lld.o
                                                  build/obj/usb_lld.o
                                                  build/obj/i2c_lld.o
                                                  build/obj/can_lld.o
                                                  build/obj/adc_lld.o
                                                  build/obj/map_averaging.o
                                                  build/obj/usbcfg.o
                                                  build/obj/adc_inputs.o
                                                  build/obj/usb.o
                                                  build/obj/serial_usb.o
                                                  build/obj/rfiutil.o
                                                  build/obj/datalogging.o
                                                  build/obj/console_io.o
                                                  build/obj/chschd.o
                                                  build/obj/chsys.o
                                                  build/obj/chcore_v7m.o
dbg_isr_cnt                                       build/obj/chdebug.o
                                                  build/obj/rfiutil.o
                                                  build/obj/datalogging.o
dbg_lock_cnt                                      build/obj/chdebug.o
                                                  build/obj/datalogging.o
dbg_panic_file                                    build/obj/rusefi.o
                                                  build/obj/status_loop.o
dbg_panic_line                                    build/obj/rusefi.o
                                                  build/obj/status_loop.o
dbg_panic_msg                                     build/obj/chdebug.o
                                                  build/obj/rusefi.o
                                                  build/obj/status_loop.o
debugFloat                                        build/obj/datalogging.o
                                                  build/obj/status_loop.o
debugInt                                          build/obj/datalogging.o
                                                  build/obj/status_loop.o
disk_initialize                                   build/obj/fatfs_diskio.o
                                                  build/obj/ff.o
disk_ioctl                                        build/obj/fatfs_diskio.o
                                                  build/obj/ff.o
disk_read                                         build/obj/fatfs_diskio.o
                                                  build/obj/ff.o
disk_status                                       build/obj/fatfs_diskio.o
                                                  build/obj/ff.o
disk_write                                        build/obj/fatfs_diskio.o
                                                  build/obj/ff.o
div                                               c:/chibistudio/tools/gnu tools arm embedded/4.7 2013q2/bin/../lib/gcc/arm-none-eabi/4.7.4/../../../../arm-none-eabi/lib/armv7e-m\libc.a(lib_a-div.o)
                                                  c:/chibistudio/tools/gnu tools arm embedded/4.7 2013q2/bin/../lib/gcc/arm-none-eabi/4.7.4/../../../../arm-none-eabi/lib/armv7e-m\libc.a(lib_a-mktime.o)
dmaInit                                           build/obj/stm32_dma.o
                                                  build/obj/hal_lld.o
dmaStreamAllocate                                 build/obj/stm32_dma.o
                                                  build/obj/spi_lld.o
                                                  build/obj/i2c_lld.o
                                                  build/obj/adc_lld.o
dmaStreamRelease                                  build/obj/stm32_dma.o
                                                  build/obj/spi_lld.o
                                                  build/obj/i2c_lld.o
                                                  build/obj/adc_lld.o
emulate()                                         build/obj/engine_emulator.o
engineConfiguration                               build/obj/flash_main.o
                                                  build/obj/engine_controller.o
                                                  build/obj/settings.o
                                                  build/obj/trigger_emulator_algo.o
                                                  build/obj/trigger_emulator.o
                                                  build/obj/main_trigger_callback.o
                                                  build/obj/rpm_calculator.o
                                                  build/obj/trigger_central.o
                                                  build/obj/thermistors.o
                                                  build/obj/voltage.o
                                                  build/obj/ego.o
                                                  build/obj/map.o
                                                  build/obj/maf.o
                                                  build/obj/tps.o
                                                  build/obj/advance_map.o
                                                  build/obj/fuel_math.o
                                                  build/obj/map_averaging.o
                                                  build/obj/injector_central.o
                                                  build/obj/lcd_HD44780.o
                                                  build/obj/trigger_input.o
                                                  build/obj/adc_inputs.o
                                                  build/obj/analog_chart.o
                                                  build/obj/status_loop.o
engineConfiguration2                              build/obj/engine_controller.o
                                                  build/obj/settings.o
                                                  build/obj/trigger_emulator_algo.o
                                                  build/obj/main_trigger_callback.o
                                                  build/obj/trigger_central.o
                                                  build/obj/thermistors.o
                                                  build/obj/flash_main.o
                                                  build/obj/injector_central.o
                                                  build/obj/status_loop.o
errorMessageBuffer                                build/obj/rusefi.o
                                                  build/obj/status_loop.o
f_close                                           build/obj/ff.o
                                                  build/obj/mmc_card.o
f_lseek                                           build/obj/ff.o
                                                  build/obj/mmc_card.o
f_mount                                           build/obj/ff.o
                                                  build/obj/mmc_card.o
f_open                                            build/obj/ff.o
                                                  build/obj/mmc_card.o
f_opendir                                         build/obj/ff.o
                                                  build/obj/mmc_card.o
f_read                                            build/obj/ff.o
f_readdir                                         build/obj/ff.o
                                                  build/obj/mmc_card.o
f_sync                                            build/obj/ff.o
                                                  build/obj/mmc_card.o
f_write                                           build/obj/ff.o
                                                  build/obj/mmc_card.o
fabs                                              c:/chibistudio/tools/gnu tools arm embedded/4.7 2013q2/bin/../lib/gcc/arm-none-eabi/4.7.4/../../../../arm-none-eabi/lib/armv7e-m\libm.a(lib_a-s_fabs.o)
                                                  c:/chibistudio/tools/gnu tools arm embedded/4.7 2013q2/bin/../lib/gcc/arm-none-eabi/4.7.4/../../../../arm-none-eabi/lib/armv7e-m\libm.a(lib_a-e_pow.o)
fatal3                                            build/obj/eficonsole.o
                                                  build/obj/event_registry.o
                                                  build/obj/interpolation.o
                                                  build/obj/wave_analyzer_hw.o
                                                  build/obj/pin_repository.o
                                                  build/obj/adc_inputs.o
                                                  build/obj/wave_analyzer.o
                                                  build/obj/datalogging.o
                                                  build/obj/eficonsole_logic.o
                                                  build/obj/listener_array.o
ff_convert                                        build/obj/ccsbcs.o
                                                  build/obj/ff.o
ff_memalloc                                       build/obj/fatfs_syscall.o
                                                  build/obj/ff.o
ff_memfree                                        build/obj/fatfs_syscall.o
                                                  build/obj/ff.o
ff_wtoupper                                       build/obj/ccsbcs.o
                                                  build/obj/ff.o
findEvents                                        build/obj/event_registry.o
                                                  build/obj/main_trigger_callback.o
findIndex                                         build/obj/interpolation.o
                                                  build/obj/settings.o
findTriggerZeroEventIndex                         build/obj/trigger_decoder.o
                                                  build/obj/engine_math.o
finishStatusLine                                  build/obj/status_loop.o
finite                                            c:/chibistudio/tools/gnu tools arm embedded/4.7 2013q2/bin/../lib/gcc/arm-none-eabi/4.7.4/../../../../arm-none-eabi/lib/armv7e-m\libm.a(lib_a-s_finite.o)
                                                  c:/chibistudio/tools/gnu tools arm embedded/4.7 2013q2/bin/../lib/gcc/arm-none-eabi/4.7.4/../../../../arm-none-eabi/lib/armv7e-m\libm.a(lib_a-w_pow.o)
firmwareError                                     build/obj/rusefi.o
                                                  build/obj/engine_math.o
                                                  build/obj/OutputSignalArray.o
                                                  build/obj/main_trigger_callback.o
                                                  build/obj/trigger_decoder.o
                                                  build/obj/pwm_generator_logic.o
                                                  build/obj/map.o
                                                  build/obj/tps.o
                                                  build/obj/interpolation.o
                                                  build/obj/signal_executor.o
                                                  build/obj/engine_configuration.o
                                                  build/obj/pin_repository.o
                                                  build/obj/histogram.o
fixAngle                                          build/obj/engine_math.o
                                                  build/obj/advance_map.o
flashCompare                                      build/obj/flash.o
flashErase                                        build/obj/flash.o
                                                  build/obj/flash_main.o
flashIsErased                                     build/obj/flash.o
flashRead                                         build/obj/flash.o
                                                  build/obj/flash_main.o
flashSectorAt                                     build/obj/flash.o
flashSectorBegin                                  build/obj/flash.o
flashSectorEnd                                    build/obj/flash.o
flashSectorErase                                  build/obj/flash.o
flashSectorSize                                   build/obj/flash.o
flashState                                        build/obj/flash_main.o
                                                  build/obj/tunerstudio.o
flashStateCrc                                     build/obj/flash_main.o
flashWrite                                        build/obj/flash.o
                                                  build/obj/flash_main.o
floatmod                                          build/obj/wave_math.o
ftoa                                              build/obj/chprintf.o
                                                  build/obj/status_loop.o
gen_numname                                       build/obj/ff.o
getAdcChannelPin                                  build/obj/adc_inputs.o
                                                  build/obj/engine_controller.o
                                                  build/obj/settings.o
getAdcChannelPort                                 build/obj/adc_inputs.o
                                                  build/obj/engine_controller.o
                                                  build/obj/settings.o
getAdcHardwareIndexByInternalIndex                build/obj/adc_inputs.o
getAdcValueByIndex                                build/obj/adc_inputs.o
getAdvance                                        build/obj/advance_map.o
                                                  build/obj/engine_emulator.o
                                                  build/obj/main_trigger_callback.o
                                                  build/obj/status_loop.o
getAfr                                            build/obj/ego.o
                                                  build/obj/map_multiplier_thread.o
                                                  build/obj/tunerstudio.o
                                                  build/obj/status_loop.o
getAtmosphericPressure                            build/obj/map_averaging.o
                                                  build/obj/tunerstudio.o
getBaseAdvance                                    build/obj/advance_map.o
getBaseFuel                                       build/obj/fuel_math.o
                                                  build/obj/rfi_perftest.o
                                                  build/obj/status_loop.o
getCaption                                        build/obj/datalogging.o
                                                  build/obj/status_loop.o
getCltCorrection                                  build/obj/fuel_math.o
                                                  build/obj/status_loop.o
getConfigurationName                              build/obj/settings.o
                                                  build/obj/trigger_emulator.o
                                                  build/obj/status_loop.o
getCoolantTemperature                             build/obj/thermistors.o
                                                  build/obj/engine_controller.o
                                                  build/obj/fuel_math.o
                                                  build/obj/tunerstudio.o
                                                  build/obj/status_loop.o
getCrankEventCounter                              build/obj/trigger_central.o
                                                  build/obj/status_loop.o
getCrankingFuel                                   build/obj/fuel_math.o
getCrankshaftAngle                                build/obj/rpm_calculator.o
                                                  build/obj/map_averaging.o
getCrankshaftRevolutionTime                       build/obj/engine_math.o
                                                  build/obj/rpm_calculator.o
getCurrentSpeed                                   build/obj/neo6m.o
getCylinderId                                     build/obj/engine_math.o
getDigiralPotDevice                               build/obj/poten.o
getElectricalValue                                build/obj/fuel_math.o
                                                  build/obj/io_pins.o
getEngineLoadT                                    build/obj/engine_math.o
                                                  build/obj/main_trigger_callback.o
                                                  build/obj/fuel_math.o
                                                  build/obj/status_loop.o
getErrorCodes                                     build/obj/malfunction_central.o
                                                  build/obj/malfunction_indicator.o
getEventCounter                                   build/obj/wave_analyzer.o
getFuelMs                                         build/obj/fuel_math.o
                                                  build/obj/main_trigger_callback.o
getFullLog                                        build/obj/status_loop.o
                                                  build/obj/wave_chart.o
                                                  build/obj/analog_chart.o
getGlobalConfigurationVersion                     build/obj/engine_configuration.o
                                                  build/obj/LocalVersionHolder.o
                                                  build/obj/settings.o
                                                  build/obj/trigger_emulator_algo.o
getHwPin                                          build/obj/io_pins.o
                                                  build/obj/idle_thread.o
                                                  build/obj/pwm_generator.o
                                                  build/obj/lcd_HD44780.o
                                                  build/obj/pin_repository.o
getHwPort                                         build/obj/io_pins.o
                                                  build/obj/idle_thread.o
                                                  build/obj/pwm_generator.o
                                                  build/obj/lcd_HD44780.o
                                                  build/obj/pin_repository.o
getIatCorrection                                  build/obj/fuel_math.o
                                                  build/obj/status_loop.o
getIdle                                           build/obj/idle_controller.o
                                                  build/obj/idle_thread.o
getIdleSwitch                                     build/obj/idle_thread.o
getInjectorLag                                    build/obj/fuel_math.o
                                                  build/obj/status_loop.o
getIntakeAirTemperature                           build/obj/thermistors.o
                                                  build/obj/engine_controller.o
                                                  build/obj/fuel_math.o
                                                  build/obj/tunerstudio.o
                                                  build/obj/status_loop.o
getInternalAdcValue                               build/obj/adc_inputs.o
                                                  build/obj/engine_controller.o
                                                  build/obj/settings.o
                                                  build/obj/thermistors.o
                                                  build/obj/voltage.o
                                                  build/obj/ego.o
                                                  build/obj/map.o
                                                  build/obj/maf.o
                                                  build/obj/tps.o
getKelvinTemperature                              build/obj/thermistors.o
getLastRpmEventTime                               build/obj/rpm_calculator.o
getLogicPinValue                                  build/obj/gpio_helper.o
                                                  build/obj/io_pins.o
getMAPValueHonda_Denso183                         build/obj/map.o
getMAPValueMPX_4250                               build/obj/map.o
getMaf                                            build/obj/maf.o
                                                  build/obj/engine_math.o
                                                  build/obj/map_multiplier_thread.o
                                                  build/obj/tunerstudio.o
                                                  build/obj/status_loop.o
getMap                                            build/obj/map_averaging.o
                                                  build/obj/engine_math.o
                                                  build/obj/tunerstudio.o
                                                  build/obj/status_loop.o
getMapByVoltage                                   build/obj/map.o
                                                  build/obj/map_averaging.o
getMcp3208adc                                     build/obj/mcp3208.o
getOneDegreeTime                                  build/obj/engine_math.o
                                                  build/obj/rpm_calculator.o
getOneDegreeTimeMs                                build/obj/engine_math.o
                                                  build/obj/main_trigger_callback.o
getOutputPinValue                                 build/obj/io_pins.o
                                                  build/obj/engine_controller.o
getPeriodEventTime                                build/obj/wave_analyzer.o
getPinName                                        build/obj/signal_executor.o
                                                  build/obj/signal_executor_sleep.o
getPinNameByAdcChannel                            build/obj/engine_controller.o
                                                  build/obj/settings.o
getR1InVoltageDividor                             build/obj/thermistors.o
getR2InVoltageDividor                             build/obj/thermistors.o
getRawMap                                         build/obj/map.o
getResistance                                     build/obj/thermistors.o
                                                  build/obj/settings.o
getRevolutionCounter                              build/obj/rpm_calculator.o
                                                  build/obj/signal_executor.o
                                                  build/obj/analog_chart.o
                                                  build/obj/status_loop.o
getRpm                                            build/obj/rpm_calculator.o
                                                  build/obj/engine_controller.o
                                                  build/obj/main_trigger_callback.o
                                                  build/obj/map_multiplier_thread.o
                                                  build/obj/map_averaging.o
                                                  build/obj/idle_thread.o
                                                  build/obj/tunerstudio.o
                                                  build/obj/status_loop.o
getRunningFuel                                    build/obj/fuel_math.o
                                                  build/obj/status_loop.o
getRusEfiVersion                                  build/obj/rusefi.o
                                                  build/obj/flash_main.o
                                                  build/obj/status_loop.o
                                                  build/obj/eficonsole.o
getSignalPeriod                                   build/obj/wave_analyzer.o
getSparkDwellMsT                                  build/obj/engine_math.o
                                                  build/obj/main_trigger_callback.o
getStartingFuel                                   build/obj/fuel_math.o
getTPS                                            build/obj/tps.o
                                                  build/obj/engine_math.o
                                                  build/obj/settings.o
                                                  build/obj/tunerstudio.o
                                                  build/obj/status_loop.o
getTPS10bitAdc                                    build/obj/tps.o
                                                  build/obj/settings.o
                                                  build/obj/tunerstudio.o
getTPSVoltage                                     build/obj/tps.o
                                                  build/obj/settings.o
getTemperatureC                                   build/obj/thermistors.o
                                                  build/obj/settings.o
getTimeNowUs                                      build/obj/engine_controller.o
getTpsRateOfChange                                build/obj/tps.o
                                                  build/obj/settings.o
getTpsValue                                       build/obj/tps.o
getTunerStudioPageSize                            build/obj/tunerstudio.o
getVBatt                                          build/obj/voltage.o
                                                  build/obj/engine_controller.o
                                                  build/obj/fuel_math.o
                                                  build/obj/tunerstudio.o
                                                  build/obj/status_loop.o
getVRef                                           build/obj/voltage.o
                                                  build/obj/status_loop.o
getVoutInVoltageDividor                           build/obj/thermistors.o
getWaveHighWidth                                  build/obj/wave_analyzer.o
getWaveLowWidth                                   build/obj/wave_analyzer.o
getWaveMode                                       build/obj/wave_analyzer.o
getWaveOffset                                     build/obj/wave_analyzer.o
getWidthEventTime                                 build/obj/wave_analyzer.o
getWorkingPageAddr                                build/obj/tunerstudio.o
get_fat                                           build/obj/ff.o
get_fattime                                       build/obj/fatfs_diskio.o
                                                  build/obj/ff.o
globalCounter                                     build/obj/signal_temp.o
gps_convert_deg_to_dec                            build/obj/nmea.o
gps_deg_dec                                       build/obj/nmea.o
gps_location                                      build/obj/nmea.o
                                                  build/obj/neo6m.o
hack                                              build/obj/mcp3208.o
halInit                                           build/obj/hal.o
                                                  build/obj/main.o
halIsCounterWithin                                build/obj/hal.o
halPolledDelay                                    build/obj/hal.o
                                                  build/obj/usb_lld.o
halTime                                           build/obj/engine_controller.o
                                                  build/obj/rfi_perftest.o
hal_lld_init                                      build/obj/hal_lld.o
                                                  build/obj/hal.o
handleActionWithParameter                         build/obj/eficonsole_logic.o
handleBurnCommand                                 build/obj/tunerstudio.o
                                                  build/obj/tunerstudio_algo.o
handleConsoleLine                                 build/obj/eficonsole_logic.o
                                                  build/obj/eficonsole.o
handleOutputChannelsCommand                       build/obj/tunerstudio_algo.o
handlePageReadCommand                             build/obj/tunerstudio.o
                                                  build/obj/tunerstudio_algo.o
handleQueryCommand                                build/obj/tunerstudio_algo.o
handleTestCommand                                 build/obj/tunerstudio_algo.o
handleValueWriteCommand                           build/obj/tunerstudio.o
                                                  build/obj/tunerstudio_algo.o
hasErrorCodes                                     build/obj/malfunction_central.o
                                                  build/obj/tunerstudio.o
hasFatalError                                     build/obj/status_loop.o
                                                  build/obj/rusefi.o
                                                  build/obj/io_pins.o
hasFirmwareError                                  build/obj/rusefi.o
                                                  build/obj/status_loop.o
helpCommand                                       build/obj/eficonsole_logic.o
hex2int                                           build/obj/nmea.o
hexChar                                           build/obj/rfiutil.o
histogramGetIndex                                 build/obj/histogram.o
hsAdd                                             build/obj/histogram.o
                                                  build/obj/main_trigger_callback.o
                                                  build/obj/trigger_central.o
hsReport                                          build/obj/histogram.o
                                                  build/obj/rfiutil.o
hwHandleShaftSignal                               build/obj/trigger_central.o
                                                  build/obj/trigger_input.o
hwPortname                                        build/obj/pin_repository.o
                                                  build/obj/engine_controller.o
                                                  build/obj/settings.o
                                                  build/obj/injector_central.o
i2cAcquireBus                                     build/obj/i2c.o
                                                  build/obj/lcd_HD44780.o
                                                  build/obj/hardware.o
i2cGetErrors                                      build/obj/i2c.o
i2cInit                                           build/obj/i2c.o
                                                  build/obj/hardware.o
                                                  build/obj/hal.o
i2cMasterReceiveTimeout                           build/obj/i2c.o
i2cMasterTransmitTimeout                          build/obj/i2c.o
                                                  build/obj/lcd_HD44780.o
                                                  build/obj/hardware.o
i2cObjectInit                                     build/obj/i2c.o
                                                  build/obj/i2c_lld.o
i2cReleaseBus                                     build/obj/i2c.o
                                                  build/obj/lcd_HD44780.o
                                                  build/obj/hardware.o
i2cStart                                          build/obj/i2c.o
                                                  build/obj/hardware.o
i2cStop                                           build/obj/i2c.o
i2c_lld_init                                      build/obj/i2c_lld.o
                                                  build/obj/i2c.o
i2c_lld_master_receive_timeout                    build/obj/i2c_lld.o
                                                  build/obj/i2c.o
i2c_lld_master_transmit_timeout                   build/obj/i2c_lld.o
                                                  build/obj/i2c.o
i2c_lld_start                                     build/obj/i2c_lld.o
                                                  build/obj/i2c.o
i2c_lld_stop                                      build/obj/i2c_lld.o
                                                  build/obj/i2c.o
icuDisable                                        build/obj/icu.o
                                                  build/obj/wave_analyzer_hw.o
icuEnable                                         build/obj/icu.o
                                                  build/obj/wave_analyzer_hw.o
                                                  build/obj/trigger_input.o
icuInit                                           build/obj/icu.o
                                                  build/obj/hal.o
icuObjectInit                                     build/obj/icu.o
                                                  build/obj/icu_lld.o
icuStart                                          build/obj/icu.o
                                                  build/obj/wave_analyzer_hw.o
                                                  build/obj/trigger_input.o
icuStop                                           build/obj/icu.o
                                                  build/obj/wave_analyzer_hw.o
icu_lld_disable                                   build/obj/icu_lld.o
                                                  build/obj/icu.o
icu_lld_enable                                    build/obj/icu_lld.o
                                                  build/obj/icu.o
icu_lld_init                                      build/obj/icu_lld.o
                                                  build/obj/icu.o
icu_lld_start                                     build/obj/icu_lld.o
                                                  build/obj/icu.o
icu_lld_stop                                      build/obj/icu_lld.o
                                                  build/obj/icu.o
idleDebug                                         build/obj/idle_thread.o
                                                  build/obj/idle_controller.o
idleInit                                          build/obj/idle_controller.o
                                                  build/obj/idle_thread.o
ignitionSignals                                   build/obj/engine_math.o
incrementGlobalConfigurationVersion               build/obj/engine_configuration.o
                                                  build/obj/settings.o
                                                  build/obj/tunerstudio.o
indexOf                                           build/obj/efilib.o
                                                  build/obj/eficonsole_logic.o
initAdcInputs                                     build/obj/adc_inputs.o
                                                  build/obj/hardware.o
initAlgo                                          build/obj/algo.o
                                                  build/obj/engine_controller.o
initAnalogChart                                   build/obj/analog_chart.o
                                                  build/obj/engine_controller.o
initBoardTest                                     build/obj/board_test.o
                                                  build/obj/hardware.o
initBpsxD1Sensor                                  build/obj/engine_configuration.o
initConsoleLogic                                  build/obj/eficonsole_logic.o
                                                  build/obj/eficonsole.o
initEngineContoller                               build/obj/engine_controller.o
                                                  build/obj/rusefi.o
initEngineEmulator                                build/obj/engine_emulator.o
                                                  build/obj/rusefi.o
initErrorHandling                                 build/obj/error_handling.o
                                                  build/obj/rusefi.o
initFlash                                         build/obj/flash_main.o
                                                  build/obj/hardware.o
initGps                                           build/obj/neo6m.o
                                                  build/obj/hardware.o
initHardware                                      build/obj/hardware.o
                                                  build/obj/rusefi.o
initHistogram                                     build/obj/histogram.o
                                                  build/obj/main_trigger_callback.o
                                                  build/obj/trigger_central.o
initHistogramsModule                              build/obj/histogram.o
                                                  build/obj/hardware.o
initI2Cmodule                                     build/obj/hardware.o
initIgnitionCentral                               build/obj/ignition_central.o
                                                  build/obj/engine_controller.o
initInjectorCentral                               build/obj/injector_central.o
                                                  build/obj/engine_controller.o
initIntermediateLoggingBuffer                     build/obj/datalogging.o
                                                  build/obj/eficonsole.o
initLogging                                       build/obj/datalogging.o
                                                  build/obj/rusefi.o
                                                  build/obj/engine_controller.o
                                                  build/obj/trigger_emulator_algo.o
                                                  build/obj/rfi_perftest.o
                                                  build/obj/main_trigger_callback.o
                                                  build/obj/trigger_decoder.o
                                                  build/obj/rpm_calculator.o
                                                  build/obj/trigger_central.o
                                                  build/obj/wave_chart.o
                                                  build/obj/signal_executor.o
                                                  build/obj/map_multiplier_thread.o
                                                  build/obj/map_averaging.o
                                                  build/obj/error_handling.o
                                                  build/obj/flash_main.o
                                                  build/obj/ignition_central.o
                                                  build/obj/injector_central.o
                                                  build/obj/idle_thread.o
                                                  build/obj/pwm_generator.o
                                                  build/obj/neo6m.o
                                                  build/obj/mmc_card.o
                                                  build/obj/rtc_helper.o
                                                  build/obj/lcd_HD44780.o
                                                  build/obj/pin_repository.o
                                                  build/obj/wave_analyzer.o
                                                  build/obj/tunerstudio.o
                                                  build/obj/status_loop.o
                                                  build/obj/eficonsole.o
                                                  build/obj/eficonsole_logic.o
initLoggingExt                                    build/obj/datalogging.o
                                                  build/obj/settings.o
                                                  build/obj/wave_chart.o
                                                  build/obj/adc_inputs.o
                                                  build/obj/analog_chart.o
                                                  build/obj/status_loop.o
initMainEventListener                             build/obj/main_trigger_callback.o
                                                  build/obj/engine_controller.o
initMalfunctionCentral                            build/obj/malfunction_central.o
                                                  build/obj/engine_controller.o
initMalfunctionIndicator                          build/obj/malfunction_indicator.o
                                                  build/obj/engine_controller.o
initMapAdjuster                                   build/obj/map_multiplier_thread.o
initMapAdjusterThread                             build/obj/map_multiplier_thread.o
initMapAveraging                                  build/obj/map_averaging.o
                                                  build/obj/engine_controller.o
initMmcCard                                       build/obj/mmc_card.o
                                                  build/obj/hardware.o
initOutputPin                                     build/obj/gpio_helper.o
initOutputPinExt                                  build/obj/gpio_helper.o
                                                  build/obj/io_pins.o
initOutputPins                                    build/obj/io_pins.o
                                                  build/obj/hardware.o
initOutputSignal                                  build/obj/signal_executor_sleep.o
                                                  build/obj/OutputSignalArray.o
initOutputSignalBase                              build/obj/signal_executor.o
                                                  build/obj/signal_executor_sleep.o
initPinRepository                                 build/obj/pin_repository.o
                                                  build/obj/rusefi.o
initPotentiometers                                build/obj/poten.o
initPrimaryPins                                   build/obj/io_pins.o
                                                  build/obj/hardware.o
initPwmGenerator                                  build/obj/pwm_generator.o
                                                  build/obj/engine_controller.o
initRpmCalculator                                 build/obj/rpm_calculator.o
                                                  build/obj/engine_controller.o
initRtc                                           build/obj/rtc_helper.o
                                                  build/obj/hardware.o
initSensors                                       build/obj/allsensors.o
                                                  build/obj/engine_controller.o
initSettings                                      build/obj/settings.o
                                                  build/obj/algo.o
initShaftPositionInputCapture                     build/obj/trigger_input.o
                                                  build/obj/hardware.o
initSignalExecutor                                build/obj/signal_executor.o
                                                  build/obj/algo.o
initSlowChannel                                   build/obj/adc_inputs.o
initSpiModules                                    build/obj/hardware.o
initStatusLoop                                    build/obj/status_loop.o
                                                  build/obj/rusefi.o
initThermistors                                   build/obj/thermistors.o
                                                  build/obj/allsensors.o
initTimePerfActions                               build/obj/rfi_perftest.o
                                                  build/obj/engine_emulator.o
initTriggerCentral                                build/obj/trigger_central.o
                                                  build/obj/hardware.o
initTriggerDecoder                                build/obj/trigger_decoder.o
                                                  build/obj/trigger_central.o
initTriggerEmulator                               build/obj/trigger_emulator.o
                                                  build/obj/engine_emulator.o
initTriggerEmulatorLogic                          build/obj/trigger_emulator_algo.o
                                                  build/obj/trigger_emulator.o
initWaveAnalyzer                                  build/obj/wave_analyzer.o
                                                  build/obj/engine_controller.o
initWaveAnalyzerDriver                            build/obj/wave_analyzer_hw.o
                                                  build/obj/trigger_input.o
                                                  build/obj/wave_analyzer.o
initWaveChart                                     build/obj/wave_chart.o
                                                  build/obj/algo.o
init_adc_mcp3208                                  build/obj/mcp3208.o
initializeConsole                                 build/obj/eficonsole.o
                                                  build/obj/rusefi.o
initializeIgnitionActions                         build/obj/engine_math.o
                                                  build/obj/main_trigger_callback.o
                                                  build/obj/engine_configuration.o
initializeMazdaMiataNbShape                       build/obj/trigger_mazda.o
                                                  build/obj/trigger_decoder.o
initializeSkippedToothTriggerShapeExt             build/obj/trigger_decoder.o
initializeTriggerShape                            build/obj/trigger_decoder.o
                                                  build/obj/engine_configuration.o
injectonSignals                                   build/obj/engine_math.o
interpolate                                       build/obj/interpolation.o
                                                  build/obj/engine_math.o
                                                  build/obj/ego.o
                                                  build/obj/map.o
                                                  build/obj/tps.o
                                                  build/obj/fuel_math.o
interpolate2d                                     build/obj/interpolation.o
                                                  build/obj/engine_math.o
                                                  build/obj/fuel_math.o
                                                  build/obj/map_averaging.o
interpolate3d                                     build/obj/interpolation.o
                                                  build/obj/advance_map.o
                                                  build/obj/fuel_math.o
invokeArgIntCallbacks                             build/obj/listener_array.o
invokeCallbacks                                   build/obj/listener_array.o
invokeIntIntCallbacks                             build/obj/listener_array.o
                                                  build/obj/trigger_central.o
invokeJustArgCallbacks                            build/obj/listener_array.o
                                                  build/obj/wave_analyzer_hw.o
isCranking                                        build/obj/rpm_calculator.o
                                                  build/obj/engine_controller.o
                                                  build/obj/main_trigger_callback.o
                                                  build/obj/idle_controller.o
                                                  build/obj/fuel_math.o
isCrankingRT                                      build/obj/engine_math.o
                                                  build/obj/rpm_calculator.o
                                                  build/obj/advance_map.o
isIgnitionTimingError                             build/obj/main_trigger_callback.o
                                                  build/obj/io_pins.o
isInitialized                                     build/obj/datalogging.o
isInjectionEnabled                                build/obj/injector_central.o
                                                  build/obj/main_trigger_callback.o
isInjectorEnabled                                 build/obj/injector_central.o
isIsrContext                                      build/obj/rfiutil.o
                                                  build/obj/console_io.o
isRunning                                         build/obj/rpm_calculator.o
                                                  build/obj/map_multiplier_thread.o
isTriggerDecoderError                             build/obj/trigger_decoder.o
                                                  build/obj/io_pins.o
isValidCoolantTemperature                         build/obj/thermistors.o
                                                  build/obj/engine_controller.o
isValidIntakeAirTemperature                       build/obj/thermistors.o
                                                  build/obj/engine_controller.o
isWaveChartFull                                   build/obj/wave_chart.o
is_serial_ready                                   build/obj/usbconsole.o
                                                  build/obj/io_pins.o
                                                  build/obj/datalogging.o
                                                  build/obj/status_loop.o
                                                  build/obj/console_io.o
                                                  build/obj/eficonsole.o
is_usb_serial_ready                               build/obj/usbconsole.o
itoa10                                            build/obj/rfiutil.o
                                                  build/obj/engine_controller.o
                                                  build/obj/rpm_calculator.o
                                                  build/obj/rtc_helper.o
                                                  build/obj/hardware.o
                                                  build/obj/datalogging.o
                                                  build/obj/status_loop.o
lcdShowFatalMessage                               build/obj/lcd_HD44780.o
                                                  build/obj/rusefi.o
lcd_HD44780_command                               build/obj/lcd_HD44780.o
lcd_HD44780_init                                  build/obj/lcd_HD44780.o
                                                  build/obj/hardware.o
lcd_HD44780_print_char                            build/obj/lcd_HD44780.o
                                                  build/obj/status_loop.o
lcd_HD44780_print_string                          build/obj/lcd_HD44780.o
                                                  build/obj/hardware.o
                                                  build/obj/status_loop.o
lcd_HD44780_set_position                          build/obj/lcd_HD44780.o
                                                  build/obj/status_loop.o
lcd_HD44780_write_command                         build/obj/lcd_HD44780.o
lcd_HD44780_write_data                            build/obj/lcd_HD44780.o
localtime_r                                       c:/chibistudio/tools/gnu tools arm embedded/4.7 2013q2/bin/../lib/gcc/arm-none-eabi/4.7.4/../../../../arm-none-eabi/lib/armv7e-m\libc.a(lib_a-lcltime_r.o)
                                                  build/obj/chrtclib.o
lockAnyContext                                    build/obj/console_io.o
                                                  build/obj/rusefi.o
                                                  build/obj/signal_executor_sleep.o
lockOutputBuffer                                  build/obj/console_io.o
                                                  build/obj/wave_chart.o
                                                  build/obj/datalogging.o
log                                               c:/chibistudio/tools/gnu tools arm embedded/4.7 2013q2/bin/../lib/gcc/arm-none-eabi/4.7.4/../../../../arm-none-eabi/lib/armv7e-m\libm.a(lib_a-w_log.o)
                                                  build/obj/thermistors.o
logger                                            build/obj/rfi_perftest.o
loggingSize                                       build/obj/datalogging.o
                                                  build/obj/analog_chart.o
main                                              build/obj/main.o
                                                  build/obj/crt0.o
main_loop_started                                 build/obj/rusefi.o
mapAveragingCallback                              build/obj/map_averaging.o
                                                  build/obj/adc_inputs.o
matherr                                           c:/chibistudio/tools/gnu tools arm embedded/4.7 2013q2/bin/../lib/gcc/arm-none-eabi/4.7.4/../../../../arm-none-eabi/lib/armv7e-m\libm.a(lib_a-s_matherr.o)
                                                  c:/chibistudio/tools/gnu tools arm embedded/4.7 2013q2/bin/../lib/gcc/arm-none-eabi/4.7.4/../../../../arm-none-eabi/lib/armv7e-m\libm.a(lib_a-w_pow.o)
                                                  c:/chibistudio/tools/gnu tools arm embedded/4.7 2013q2/bin/../lib/gcc/arm-none-eabi/4.7.4/../../../../arm-none-eabi/lib/armv7e-m\libm.a(lib_a-w_log.o)
max                                               build/obj/idle_controller.o
maxF                                              build/obj/idle_controller.o
                                                  build/obj/map_averaging.o
memchr                                            c:/chibistudio/tools/gnu tools arm embedded/4.7 2013q2/bin/../lib/gcc/arm-none-eabi/4.7.4/../../../../arm-none-eabi/lib/armv7e-m\libc.a(lib_a-memchr.o)
                                                  c:/chibistudio/tools/gnu tools arm embedded/4.7 2013q2/bin/../lib/gcc/arm-none-eabi/4.7.4/../../../../arm-none-eabi/lib/armv7e-m\libc.a(lib_a-strstr.o)
memcmp                                            c:/chibistudio/tools/gnu tools arm embedded/4.7 2013q2/bin/../lib/gcc/arm-none-eabi/4.7.4/../../../../arm-none-eabi/lib/armv7e-m\libc.a(lib_a-memcmp.o)
                                                  c:/chibistudio/tools/gnu tools arm embedded/4.7 2013q2/bin/../lib/gcc/arm-none-eabi/4.7.4/../../../../arm-none-eabi/lib/armv7e-m\libc.a(lib_a-strstr.o)
memcpy                                            c:/chibistudio/tools/gnu tools arm embedded/4.7 2013q2/bin/../lib/gcc/arm-none-eabi/4.7.4/../../../../arm-none-eabi/lib/armv7e-m\libc.a(lib_a-memcpy.o)
                                                  build/obj/flash.o
                                                  build/obj/tunerstudio.o
                                                  build/obj/memstreams.o
memset                                            c:/chibistudio/tools/gnu tools arm embedded/4.7 2013q2/bin/../lib/gcc/arm-none-eabi/4.7.4/../../../../arm-none-eabi/lib/armv7e-m\libc.a(lib_a-memset.o)
                                                  build/obj/cyclic_buffer.o
                                                  build/obj/trigger_structure.o
                                                  build/obj/engine_configuration.o
                                                  build/obj/neo6m.o
                                                  build/obj/mmc_card.o
                                                  build/obj/usb.o
                                                  build/obj/histogram.o
min                                               build/obj/idle_controller.o
mktime                                            c:/chibistudio/tools/gnu tools arm embedded/4.7 2013q2/bin/../lib/gcc/arm-none-eabi/4.7.4/../../../../arm-none-eabi/lib/armv7e-m\libc.a(lib_a-mktime.o)
                                                  build/obj/chrtclib.o
mmcConnect                                        build/obj/mmc_spi.o
                                                  build/obj/mmc_card.o
mmcDisconnect                                     build/obj/mmc_spi.o
                                                  build/obj/mmc_card.o
mmcErase                                          build/obj/mmc_spi.o
mmcGetInfo                                        build/obj/mmc_spi.o
mmcInit                                           build/obj/mmc_spi.o
                                                  build/obj/hal.o
mmcObjectInit                                     build/obj/mmc_spi.o
                                                  build/obj/mmc_card.o
mmcSequentialRead                                 build/obj/mmc_spi.o
                                                  build/obj/fatfs_diskio.o
mmcSequentialWrite                                build/obj/mmc_spi.o
                                                  build/obj/fatfs_diskio.o
mmcStart                                          build/obj/mmc_spi.o
                                                  build/obj/mmc_card.o
mmcStartSequentialRead                            build/obj/mmc_spi.o
                                                  build/obj/fatfs_diskio.o
mmcStartSequentialWrite                           build/obj/mmc_spi.o
                                                  build/obj/fatfs_diskio.o
mmcStop                                           build/obj/mmc_spi.o
                                                  build/obj/mmc_card.o
mmcStopSequentialRead                             build/obj/mmc_spi.o
                                                  build/obj/fatfs_diskio.o
mmcStopSequentialWrite                            build/obj/mmc_spi.o
                                                  build/obj/fatfs_diskio.o
mmcSync                                           build/obj/mmc_spi.o
mmc_lld_is_card_inserted                          build/obj/board.o
                                                  build/obj/mmc_spi.o
mmc_lld_is_write_protected                        build/obj/board.o
                                                  build/obj/fatfs_diskio.o
                                                  build/obj/mmc_spi.o
mmcsdGetCapacity                                  build/obj/mmcsd.o
                                                  build/obj/mmc_spi.o
modf                                              c:/chibistudio/tools/gnu tools arm embedded/4.7 2013q2/bin/../lib/gcc/arm-none-eabi/4.7.4/../../../../arm-none-eabi/lib/armv7e-m\libm.a(lib_a-s_modf.o)
                                                  build/obj/nmea.o
modp                                              build/obj/data_buffer.o
msObjectInit                                      build/obj/memstreams.o
                                                  build/obj/rusefi.o
                                                  build/obj/pin_repository.o
                                                  build/obj/datalogging.o
mySetPadMode                                      build/obj/pin_repository.o
                                                  build/obj/engine_emulator.o
                                                  build/obj/idle_thread.o
                                                  build/obj/wave_analyzer_hw.o
                                                  build/obj/gpio_helper.o
                                                  build/obj/neo6m.o
                                                  build/obj/lcd_HD44780.o
                                                  build/obj/mcp3208.o
                                                  build/obj/adc_inputs.o
                                                  build/obj/hardware.o
                                                  build/obj/tunerstudio.o
mylog10                                           build/obj/rfiutil.o
nan                                               c:/chibistudio/tools/gnu tools arm embedded/4.7 2013q2/bin/../lib/gcc/arm-none-eabi/4.7.4/../../../../arm-none-eabi/lib/armv7e-m\libm.a(lib_a-s_nan.o)
                                                  c:/chibistudio/tools/gnu tools arm embedded/4.7 2013q2/bin/../lib/gcc/arm-none-eabi/4.7.4/../../../../arm-none-eabi/lib/armv7e-m\libm.a(lib_a-e_pow.o)
                                                  c:/chibistudio/tools/gnu tools arm embedded/4.7 2013q2/bin/../lib/gcc/arm-none-eabi/4.7.4/../../../../arm-none-eabi/lib/armv7e-m\libm.a(lib_a-w_log.o)
needInterpolationLogging                          build/obj/interpolation.o
needToReportStatus                                build/obj/status_loop.o
nmea_get_message_type                             build/obj/nmea.o
nmea_parse_gpgga                                  build/obj/nmea.o
nmea_parse_gprmc                                  build/obj/nmea.o
nmea_valid_checksum                               build/obj/nmea.o
nvicDisableVector                                 build/obj/nvic.o
                                                  build/obj/serial_lld.o
                                                  build/obj/pwm_lld.o
                                                  build/obj/icu_lld.o
                                                  build/obj/i2c_lld.o
                                                  build/obj/can_lld.o
                                                  build/obj/stm32_dma.o
nvicEnableVector                                  build/obj/nvic.o
                                                  build/obj/serial_lld.o
                                                  build/obj/pwm_lld.o
                                                  build/obj/icu_lld.o
                                                  build/obj/usb_lld.o
                                                  build/obj/i2c_lld.o
                                                  build/obj/can_lld.o
                                                  build/obj/adc_lld.o
                                                  build/obj/stm32_dma.o
nvicSetSystemHandlerPriority                      build/obj/nvic.o
                                                  build/obj/chcore_v7m.o
offTime                                           build/obj/injector_central.o
onDbgPanic                                        build/obj/status_loop.o
                                                  build/obj/rusefi.o
onFatalError                                      build/obj/rusefi.o
onTime                                            build/obj/injector_central.o
outputPinRegister                                 build/obj/io_pins.o
                                                  build/obj/pwm_generator.o
outputPinRegisterExt2                             build/obj/io_pins.o
                                                  build/obj/trigger_emulator.o
                                                  build/obj/ignition_central.o
                                                  build/obj/injector_central.o
palReadBus                                        build/obj/pal.o
palSetBusMode                                     build/obj/pal.o
palWriteBus                                       build/obj/pal.o
pal_default_config                                build/obj/board.o
                                                  build/obj/hal.o
pin                                               build/obj/injector_central.o
pokeAdcInputs                                     build/obj/adc_inputs.o
                                                  build/obj/status_loop.o
port_halt                                         build/obj/chcore.o
                                                  build/obj/rusefi.o
                                                  build/obj/i2c_lld.o
portname                                          build/obj/pin_repository.o
                                                  build/obj/engine_controller.o
                                                  build/obj/settings.o
                                                  build/obj/neo6m.o
                                                  build/obj/mmc_card.o
                                                  build/obj/lcd_HD44780.o
                                                  build/obj/trigger_input.o
                                                  build/obj/adc_inputs.o
                                                  build/obj/wave_analyzer.o
                                                  build/obj/tunerstudio.o
pow                                               c:/chibistudio/tools/gnu tools arm embedded/4.7 2013q2/bin/../lib/gcc/arm-none-eabi/4.7.4/../../../../arm-none-eabi/lib/armv7e-m\libm.a(lib_a-w_pow.o)
                                                  build/obj/malfunction_indicator.o
prepareFuelMap                                    build/obj/fuel_math.o
                                                  build/obj/algo.o
prepareOutputSignals                              build/obj/engine_math.o
                                                  build/obj/main_trigger_callback.o
                                                  build/obj/engine_configuration.o
prepareThermistorCurve                            build/obj/thermistors.o
prepareTimingMap                                  build/obj/advance_map.o
                                                  build/obj/algo.o
previousWriteReport                               build/obj/tunerstudio.o
print                                             build/obj/eficonsole.o
                                                  build/obj/rusefi.o
                                                  build/obj/settings.o
                                                  build/obj/engine_emulator.o
                                                  build/obj/trigger_emulator.o
                                                  build/obj/trigger_central.o
                                                  build/obj/flash_main.o
                                                  build/obj/injector_central.o
                                                  build/obj/neo6m.o
                                                  build/obj/mmc_card.o
                                                  build/obj/mcp3208.o
                                                  build/obj/pin_repository.o
                                                  build/obj/trigger_input.o
                                                  build/obj/adc_inputs.o
                                                  build/obj/hardware.o
                                                  build/obj/wave_analyzer.o
                                                  build/obj/poten.o
                                                  build/obj/datalogging.o
                                                  build/obj/tunerstudio.o
                                                  build/obj/status_loop.o
                                                  build/obj/eficonsole_logic.o
                                                  build/obj/data_buffer.o
printAllCallbacksHistogram                        build/obj/trigger_central.o
                                                  build/obj/main_trigger_callback.o
printConfiguration                                build/obj/settings.o
printFloatArray                                   build/obj/settings.o
printHistogram                                    build/obj/rfiutil.o
                                                  build/obj/main_trigger_callback.o
                                                  build/obj/trigger_central.o
printLine                                         build/obj/datalogging.o
                                                  build/obj/pin_repository.o
                                                  build/obj/status_loop.o
printMsg                                          build/obj/datalogging.o
                                                  build/obj/main_trigger_callback.o
                                                  build/obj/wave_chart.o
                                                  build/obj/idle_thread.o
                                                  build/obj/status_loop.o
                                                  build/obj/eficonsole.o
printPending                                      build/obj/datalogging.o
                                                  build/obj/status_loop.o
printSensors                                      build/obj/status_loop.o
printState                                        build/obj/status_loop.o
printWave                                         build/obj/wave_analyzer.o
processTriggerEvent                               build/obj/trigger_decoder.o
                                                  build/obj/trigger_central.o
publishChart                                      build/obj/wave_chart.o
publishChartIfFull                                build/obj/wave_chart.o
                                                  build/obj/wave_analyzer.o
put_fat                                           build/obj/ff.o
pwmChangePeriod                                   build/obj/pwm.o
pwmDisableChannel                                 build/obj/pwm.o
pwmEnableChannel                                  build/obj/pwm.o
pwmInit                                           build/obj/pwm.o
                                                  build/obj/hal.o
pwmObjectInit                                     build/obj/pwm.o
                                                  build/obj/pwm_lld.o
pwmStart                                          build/obj/pwm.o
                                                  build/obj/adc_inputs.o
pwmStop                                           build/obj/pwm.o
pwm_lld_disable_channel                           build/obj/pwm_lld.o
                                                  build/obj/pwm.o
pwm_lld_enable_channel                            build/obj/pwm_lld.o
                                                  build/obj/pwm.o
pwm_lld_init                                      build/obj/pwm_lld.o
                                                  build/obj/pwm.o
pwm_lld_start                                     build/obj/pwm_lld.o
                                                  build/obj/pwm.o
pwm_lld_stop                                      build/obj/pwm_lld.o
                                                  build/obj/pwm.o
registedFundamentralIoPin                         build/obj/pin_repository.o
registerActuatorEvent                             build/obj/event_registry.o
                                                  build/obj/engine_math.o
registerActuatorEventExt                          build/obj/engine_math.o
registerCallback                                  build/obj/listener_array.o
                                                  build/obj/trigger_central.o
                                                  build/obj/wave_analyzer.o
registerShaftPositionListener                     build/obj/trigger_central.o
                                                  build/obj/engine_controller.o
                                                  build/obj/main_trigger_callback.o
                                                  build/obj/rpm_calculator.o
                                                  build/obj/map_averaging.o
                                                  build/obj/wave_analyzer.o
removeError                                       build/obj/malfunction_central.o
requestAdcValue                                   build/obj/mcp3208.o
requestAdcValueI                                  build/obj/mcp3208.o
resetConfigurationExt                             build/obj/engine_configuration.o
                                                  build/obj/settings.o
                                                  build/obj/flash_main.o
resetConsoleActions                               build/obj/eficonsole_logic.o
resetEventList                                    build/obj/event_registry.o
                                                  build/obj/engine_math.o
resetLogging                                      build/obj/datalogging.o
                                                  build/obj/wave_chart.o
                                                  build/obj/error_handling.o
                                                  build/obj/injector_central.o
                                                  build/obj/analog_chart.o
                                                  build/obj/rfiutil.o
                                                  build/obj/status_loop.o
resetWaveChart                                    build/obj/wave_chart.o
rint                                              c:/chibistudio/tools/gnu tools arm embedded/4.7 2013q2/bin/../lib/gcc/arm-none-eabi/4.7.4/../../../../arm-none-eabi/lib/armv7e-m\libm.a(lib_a-s_rint.o)
                                                  c:/chibistudio/tools/gnu tools arm embedded/4.7 2013q2/bin/../lib/gcc/arm-none-eabi/4.7.4/../../../../arm-none-eabi/lib/armv7e-m\libm.a(lib_a-w_pow.o)
rlist                                             build/obj/chschd.o
                                                  build/obj/engine_controller.o
                                                  build/obj/engine_emulator.o
                                                  build/obj/ch.o
                                                  build/obj/pwm_generator_logic.o
                                                  build/obj/usb_lld.o
                                                  build/obj/i2c_lld.o
                                                  build/obj/map_multiplier_thread.o
                                                  build/obj/malfunction_indicator.o
                                                  build/obj/injector_central.o
                                                  build/obj/idle_thread.o
                                                  build/obj/neo6m.o
                                                  build/obj/mmc_card.o
                                                  build/obj/io_pins.o
                                                  build/obj/wave_analyzer.o
                                                  build/obj/spi.o
                                                  build/obj/adc.o
                                                  build/obj/tunerstudio.o
                                                  build/obj/status_loop.o
                                                  build/obj/console_io.o
                                                  build/obj/chqueues.o
                                                  build/obj/chmsg.o
                                                  build/obj/chevents.o
                                                  build/obj/chcond.o
                                                  build/obj/chmtx.o
                                                  build/obj/chsem.o
                                                  build/obj/chregistry.o
                                                  build/obj/chthreads.o
                                                  build/obj/chsys.o
                                                  build/obj/chcore_v7m.o
round                                             c:/chibistudio/tools/gnu tools arm embedded/4.7 2013q2/bin/../lib/gcc/arm-none-eabi/4.7.4/../../../../arm-none-eabi/lib/armv7e-m\libm.a(lib_a-s_round.o)
                                                  build/obj/nmea.o
rtcGetAlarm                                       build/obj/rtc.o
rtcGetPeriodicWakeup_v2                           build/obj/rtc_lld.o
rtcGetTime                                        build/obj/rtc.o
                                                  build/obj/chrtclib.o
rtcGetTimeFat                                     build/obj/rtc.o
                                                  build/obj/fatfs_diskio.o
rtcGetTimeTm                                      build/obj/chrtclib.o
                                                  build/obj/rtc_helper.o
rtcGetTimeUnixSec                                 build/obj/chrtclib.o
                                                  build/obj/rfi_perftest.o
                                                  build/obj/rtc_helper.o
rtcGetTimeUnixUsec                                build/obj/chrtclib.o
rtcInit                                           build/obj/rtc.o
                                                  build/obj/hal.o
rtcSetAlarm                                       build/obj/rtc.o
rtcSetPeriodicWakeup_v2                           build/obj/rtc_lld.o
rtcSetTime                                        build/obj/rtc.o
                                                  build/obj/chrtclib.o
rtcSetTimeTm                                      build/obj/chrtclib.o
                                                  build/obj/rtc_helper.o
rtcSetTimeUnixSec                                 build/obj/chrtclib.o
                                                  build/obj/rtc_helper.o
rtcStartTime                                      build/obj/rfi_perftest.o
rtc_lld_get_alarm                                 build/obj/rtc_lld.o
                                                  build/obj/rtc.o
rtc_lld_get_time                                  build/obj/rtc_lld.o
                                                  build/obj/rtc.o
rtc_lld_get_time_fat                              build/obj/rtc_lld.o
                                                  build/obj/rtc.o
rtc_lld_init                                      build/obj/rtc_lld.o
                                                  build/obj/rtc.o
rtc_lld_set_alarm                                 build/obj/rtc_lld.o
                                                  build/obj/rtc.o
rtc_lld_set_time                                  build/obj/rtc_lld.o
                                                  build/obj/rtc.o
runBench                                          build/obj/injector_central.o
runMapAdjustments                                 build/obj/map_multiplier_thread.o
runRusEfi                                         build/obj/rusefi.o
                                                  build/obj/main.o
saveTpsState                                      build/obj/tps.o
scalbn                                            c:/chibistudio/tools/gnu tools arm embedded/4.7 2013q2/bin/../lib/gcc/arm-none-eabi/4.7.4/../../../../arm-none-eabi/lib/armv7e-m\libm.a(lib_a-s_scalbn.o)
                                                  c:/chibistudio/tools/gnu tools arm embedded/4.7 2013q2/bin/../lib/gcc/arm-none-eabi/4.7.4/../../../../arm-none-eabi/lib/armv7e-m\libm.a(lib_a-e_pow.o)
scheduleByAngle                                   build/obj/rpm_calculator.o
                                                  build/obj/map_averaging.o
scheduleIntValue                                  build/obj/datalogging.o
                                                  build/obj/wave_chart.o
                                                  build/obj/adc_inputs.o
scheduleLogging                                   build/obj/datalogging.o
                                                  build/obj/settings.o
                                                  build/obj/wave_chart.o
                                                  build/obj/map_multiplier_thread.o
                                                  build/obj/error_handling.o
                                                  build/obj/injector_central.o
                                                  build/obj/idle_thread.o
                                                  build/obj/rtc_helper.o
                                                  build/obj/adc_inputs.o
                                                  build/obj/analog_chart.o
                                                  build/obj/rfiutil.o
scheduleMsg                                       build/obj/datalogging.o
                                                  build/obj/rusefi.o
                                                  build/obj/engine_controller.o
                                                  build/obj/settings.o
                                                  build/obj/trigger_emulator_algo.o
                                                  build/obj/rfi_perftest.o
                                                  build/obj/main_trigger_callback.o
                                                  build/obj/trigger_central.o
                                                  build/obj/map_multiplier_thread.o
                                                  build/obj/map_averaging.o
                                                  build/obj/flash_main.o
                                                  build/obj/injector_central.o
                                                  build/obj/idle_thread.o
                                                  build/obj/neo6m.o
                                                  build/obj/mmc_card.o
                                                  build/obj/rtc_helper.o
                                                  build/obj/lcd_HD44780.o
                                                  build/obj/adc_inputs.o
                                                  build/obj/tunerstudio.o
                                                  build/obj/status_loop.o
                                                  build/obj/eficonsole.o
                                                  build/obj/eficonsole_logic.o
scheduleOutput                                    build/obj/signal_executor.o
                                                  build/obj/main_trigger_callback.o
scheduleOutputBase                                build/obj/signal_executor.o
scheduleReset                                     build/obj/rusefi.o
scheduleTask                                      build/obj/signal_executor_sleep.o
                                                  build/obj/rpm_calculator.o
                                                  build/obj/signal_executor.o
sdIncomingDataI                                   build/obj/serial.o
                                                  build/obj/serial_lld.o
sdInit                                            build/obj/serial.o
                                                  build/obj/hal.o
sdObjectInit                                      build/obj/serial.o
                                                  build/obj/serial_lld.o
sdRequestDataI                                    build/obj/serial.o
sdStart                                           build/obj/serial.o
                                                  build/obj/neo6m.o
                                                  build/obj/usbconsole.o
                                                  build/obj/tunerstudio.o
sdStop                                            build/obj/serial.o
sd_lld_init                                       build/obj/serial_lld.o
                                                  build/obj/serial.o
sd_lld_start                                      build/obj/serial_lld.o
                                                  build/obj/serial.o
sd_lld_stop                                       build/obj/serial_lld.o
                                                  build/obj/serial.o
sduConfigureHookI                                 build/obj/serial_usb.o
                                                  build/obj/usbcfg.o
sduDataReceived                                   build/obj/serial_usb.o
                                                  build/obj/usbcfg.o
sduDataTransmitted                                build/obj/serial_usb.o
                                                  build/obj/usbcfg.o
sduInit                                           build/obj/serial_usb.o
                                                  build/obj/hal.o
sduInterruptTransmitted                           build/obj/serial_usb.o
                                                  build/obj/usbcfg.o
sduObjectInit                                     build/obj/serial_usb.o
                                                  build/obj/usbconsole.o
sduRequestsHook                                   build/obj/serial_usb.o
                                                  build/obj/usbcfg.o
sduStart                                          build/obj/serial_usb.o
                                                  build/obj/usbconsole.o
sduStop                                           build/obj/serial_usb.o
sendOutConfirmation                               build/obj/eficonsole.o
                                                  build/obj/eficonsole_logic.o
serusbcfg                                         build/obj/usbcfg.o
                                                  build/obj/usbconsole.o
setChartSize                                      build/obj/wave_chart.o
setCitroenBerlingoTU3JPConfiguration              build/obj/citroenBerlingoTU3JP.o
                                                  build/obj/engine_configuration.o
setConstantDwell                                  build/obj/engine_configuration.o
                                                  build/obj/ford_1995_inline_6.o
setDefaultConfiguration                           build/obj/engine_configuration.o
setDefaultNonPersistentConfiguration              build/obj/engine_configuration.o
                                                  build/obj/flash_main.o
setDefaultPinState                                build/obj/io_pins.o
setDiag(int)                                      build/obj/engine_emulator.o
setDodgeNeonEngineConfiguration                   build/obj/dodge_neon.o
                                                  build/obj/engine_configuration.o
setError                                          build/obj/malfunction_central.o
                                                  build/obj/engine_controller.o
setFordAspireEngineConfiguration                  build/obj/ford_aspire.o
                                                  build/obj/engine_configuration.o
setFordEscortGt                                   build/obj/ford_escort_gt.o
                                                  build/obj/engine_configuration.o
setFordFiestaDefaultEngineConfiguration           build/obj/ford_fiesta.o
                                                  build/obj/engine_configuration.o
setFordInline6                                    build/obj/ford_1995_inline_6.o
                                                  build/obj/engine_configuration.o
setFuelLoadBin                                    build/obj/engine_math.o
                                                  build/obj/ford_aspire.o
                                                  build/obj/engine_configuration.o
setFuelRpmBin                                     build/obj/engine_math.o
                                                  build/obj/ford_aspire.o
                                                  build/obj/engine_configuration.o
setFullLog                                        build/obj/status_loop.o
                                                  build/obj/engine_emulator.o
setGy6139qmbDefaultEngineConfiguration            build/obj/GY6_139QMB.o
                                                  build/obj/engine_configuration.o
setHondaAccordConfiguration                       build/obj/honda_accord.o
                                                  build/obj/engine_configuration.o
setIdleRpm                                        build/obj/idle_controller.o
                                                  build/obj/idle_thread.o
setMazda323EngineConfiguration                    build/obj/mazda_323.o
                                                  build/obj/engine_configuration.o
setMazdaMiataNbEngineConfiguration                build/obj/mazda_miata_nb.o
                                                  build/obj/engine_configuration.o
setMiniCooperR50                                  build/obj/MiniCooperR50.o
                                                  build/obj/engine_configuration.o
setNissanPrimeraEngineConfiguration               build/obj/nissan_primera.o
                                                  build/obj/engine_configuration.o
setOutputPinValue                                 build/obj/io_pins.o
                                                  build/obj/engine_controller.o
                                                  build/obj/signal_executor.o
                                                  build/obj/injector_central.o
                                                  build/obj/pwm_generator.o
                                                  build/obj/status_loop.o
setPinValue                                       build/obj/gpio_helper.o
                                                  build/obj/io_pins.o
setSaturnIonEngineConfiguration                   build/obj/saturn_ion.o
                                                  build/obj/engine_configuration.o
setSimplePwmDutyCycle                             build/obj/pwm_generator.o
                                                  build/obj/idle_thread.o
setSingleCoilDwell                                build/obj/engine_math.o
                                                  build/obj/ford_escort_gt.o
                                                  build/obj/ford_aspire.o
setTableBin                                       build/obj/engine_math.o
                                                  build/obj/engine_configuration.o
setTableValue                                     build/obj/interpolation.o
setThermistorConfiguration                        build/obj/thermistors.o
                                                  build/obj/ford_aspire.o
                                                  build/obj/engine_configuration.o
                                                  build/obj/mazda_miata_nb.o
                                                  build/obj/ford_1995_inline_6.o
                                                  build/obj/dodge_neon.o
setTimingLoadBin                                  build/obj/engine_math.o
                                                  build/obj/ford_aspire.o
                                                  build/obj/engine_configuration.o
setTimingRpmBin                                   build/obj/engine_math.o
                                                  build/obj/ford_aspire.o
                                                  build/obj/engine_configuration.o
setTriggerEmulatorRPM(int)                        build/obj/trigger_emulator_algo.o
                                                  build/obj/engine_emulator.o
setWaveMode                                       build/obj/wave_analyzer.o
setWaveReaderMode                                 build/obj/wave_analyzer_hw.o
                                                  build/obj/wave_analyzer.o
setWholeFuelMap                                   build/obj/engine_configuration.o
                                                  build/obj/settings.o
                                                  build/obj/ford_escort_gt.o
                                                  build/obj/mazda_miata_nb.o
                                                  build/obj/dodge_neon.o
showMainHistogram                                 build/obj/main_trigger_callback.o
spiAcquireBus                                     build/obj/spi.o
spiExchange                                       build/obj/spi.o
spiIgnore                                         build/obj/spi.o
                                                  build/obj/mmc_spi.o
spiInit                                           build/obj/spi.o
                                                  build/obj/hal.o
spiObjectInit                                     build/obj/spi.o
                                                  build/obj/spi_lld.o
spiReceive                                        build/obj/spi.o
                                                  build/obj/mmc_spi.o
spiReleaseBus                                     build/obj/spi.o
spiSelect                                         build/obj/spi.o
                                                  build/obj/mcp3208.o
                                                  build/obj/mmc_spi.o
spiSend                                           build/obj/spi.o
                                                  build/obj/mmc_spi.o
spiStart                                          build/obj/spi.o
                                                  build/obj/mcp3208.o
                                                  build/obj/mmc_spi.o
spiStartExchange                                  build/obj/spi.o
                                                  build/obj/mcp3208.o
spiStartIgnore                                    build/obj/spi.o
spiStartReceive                                   build/obj/spi.o
spiStartSend                                      build/obj/spi.o
spiStop                                           build/obj/spi.o
                                                  build/obj/mmc_spi.o
spiUnselect                                       build/obj/spi.o
                                                  build/obj/mmc_spi.o
spi_lld_exchange                                  build/obj/spi_lld.o
                                                  build/obj/mcp3208.o
                                                  build/obj/spi.o
spi_lld_ignore                                    build/obj/spi_lld.o
                                                  build/obj/spi.o
spi_lld_init                                      build/obj/spi_lld.o
                                                  build/obj/spi.o
spi_lld_polled_exchange                           build/obj/spi_lld.o
spi_lld_receive                                   build/obj/spi_lld.o
                                                  build/obj/spi.o
spi_lld_select                                    build/obj/spi_lld.o
                                                  build/obj/mcp3208.o
                                                  build/obj/spi.o
spi_lld_send                                      build/obj/spi_lld.o
                                                  build/obj/spi.o
spi_lld_start                                     build/obj/spi_lld.o
                                                  build/obj/spi.o
spi_lld_stop                                      build/obj/spi_lld.o
                                                  build/obj/spi.o
spi_lld_unselect                                  build/obj/spi_lld.o
                                                  build/obj/mcp3208.o
                                                  build/obj/spi.o
startChibiosConsole                               build/obj/console_io.o
                                                  build/obj/eficonsole.o
startEmulator()                                   build/obj/engine_emulator.o
startIdleThread                                   build/obj/idle_thread.o
startSimplePwm                                    build/obj/pwm_generator.o
                                                  build/obj/idle_thread.o
startStatusThreads                                build/obj/status_loop.o
                                                  build/obj/rusefi.o
startTunerStudioConnectivity                      build/obj/tunerstudio.o
                                                  build/obj/engine_controller.o
stm32_clock_init                                  build/obj/hal_lld.o
                                                  build/obj/board.o
str2int                                           build/obj/nmea.o
strEqual                                          build/obj/eficonsole_logic.o
str_till_comma                                    build/obj/nmea.o
strcat                                            c:/chibistudio/tools/gnu tools arm embedded/4.7 2013q2/bin/../lib/gcc/arm-none-eabi/4.7.4/../../../../arm-none-eabi/lib/armv7e-m\libc.a(lib_a-strcat.o)
                                                  build/obj/rusefi.o
                                                  build/obj/datalogging.o
                                                  build/obj/eficonsole_logic.o
strchr                                            c:/chibistudio/tools/gnu tools arm embedded/4.7 2013q2/bin/../lib/gcc/arm-none-eabi/4.7.4/../../../../arm-none-eabi/lib/armv7e-m\libc.a(lib_a-strchr.o)
                                                  c:/chibistudio/tools/gnu tools arm embedded/4.7 2013q2/bin/../lib/gcc/arm-none-eabi/4.7.4/../../../../arm-none-eabi/lib/armv7e-m\libc.a(lib_a-strstr.o)
                                                  c:/chibistudio/tools/gnu tools arm embedded/4.7 2013q2/bin/../lib/gcc/arm-none-eabi/4.7.4/../../../../arm-none-eabi/lib/armv7e-m\libc.a(lib_a-strrchr.o)
                                                  build/obj/nmea.o
strcpy                                            c:/chibistudio/tools/gnu tools arm embedded/4.7 2013q2/bin/../lib/gcc/arm-none-eabi/4.7.4/../../../../arm-none-eabi/lib/armv7e-m\libc.a(lib_a-strcpy.o)
                                                  c:/chibistudio/tools/gnu tools arm embedded/4.7 2013q2/bin/../lib/gcc/arm-none-eabi/4.7.4/../../../../arm-none-eabi/lib/armv7e-m\libc.a(lib_a-strcat.o)
                                                  build/obj/efilib.o
                                                  build/obj/engine_controller.o
                                                  build/obj/mmc_card.o
                                                  build/obj/datalogging.o
                                                  build/obj/eficonsole.o
                                                  build/obj/histogram.o
strlen                                            c:/chibistudio/tools/gnu tools arm embedded/4.7 2013q2/bin/../lib/gcc/arm-none-eabi/4.7.4/../../../../arm-none-eabi/lib/armv7e-m\libc.a(lib_a-strlen.o)
                                                  build/obj/efilib.o
                                                  build/obj/nmea.o
                                                  build/obj/mmc_card.o
                                                  build/obj/datalogging.o
                                                  build/obj/eficonsole_logic.o
                                                  build/obj/histogram.o
strncmp                                           c:/chibistudio/tools/gnu tools arm embedded/4.7 2013q2/bin/../lib/gcc/arm-none-eabi/4.7.4/../../../../arm-none-eabi/lib/armv7e-m\libc.a(lib_a-strncmp.o)
                                                  build/obj/eficonsole_logic.o
strrchr                                           c:/chibistudio/tools/gnu tools arm embedded/4.7 2013q2/bin/../lib/gcc/arm-none-eabi/4.7.4/../../../../arm-none-eabi/lib/armv7e-m\libc.a(lib_a-strrchr.o)
                                                  build/obj/nmea.o
strstr                                            c:/chibistudio/tools/gnu tools arm embedded/4.7 2013q2/bin/../lib/gcc/arm-none-eabi/4.7.4/../../../../arm-none-eabi/lib/armv7e-m\libc.a(lib_a-strstr.o)
                                                  build/obj/nmea.o
syncTunerStudioCopy                               build/obj/tunerstudio.o
                                                  build/obj/engine_configuration.o
systicks2ms                                       build/obj/rusefi.o
                                                  build/obj/data_buffer.o
tokenLength                                       build/obj/eficonsole_logic.o
triggerAddEvent                                   build/obj/trigger_structure.o
                                                  build/obj/trigger_gm.o
                                                  build/obj/trigger_chrysler.o
                                                  build/obj/trigger_decoder.o
                                                  build/obj/trigger_mazda.o
triggerShapeInit                                  build/obj/trigger_structure.o
                                                  build/obj/trigger_gm.o
                                                  build/obj/trigger_chrysler.o
                                                  build/obj/trigger_decoder.o
                                                  build/obj/trigger_mazda.o
tsOutputChannels                                  build/obj/tunerstudio_algo.o
                                                  build/obj/tunerstudio.o
tsState                                           build/obj/tunerstudio_algo.o
                                                  build/obj/tunerstudio.o
tunerStudioDebug                                  build/obj/tunerstudio.o
                                                  build/obj/tunerstudio_algo.o
tunerStudioHandleCommand                          build/obj/tunerstudio_algo.o
                                                  build/obj/tunerstudio.o
tunerStudioWriteData                              build/obj/tunerstudio.o
                                                  build/obj/tunerstudio_algo.o
turnOutputPinOff                                  build/obj/io_pins.o
                                                  build/obj/engine_controller.o
                                                  build/obj/malfunction_indicator.o
turnOutputPinOn                                   build/obj/io_pins.o
                                                  build/obj/engine_controller.o
                                                  build/obj/malfunction_indicator.o
unlockAnyContext                                  build/obj/console_io.o
                                                  build/obj/rusefi.o
                                                  build/obj/signal_executor_sleep.o
unlockOutputBuffer                                build/obj/console_io.o
                                                  build/obj/wave_chart.o
                                                  build/obj/datalogging.o
updateDevConsoleState                             build/obj/status_loop.o
                                                  build/obj/rusefi.o
updateHD44780lcd                                  build/obj/status_loop.o
updateTunerStudioState                            build/obj/tunerstudio.o
                                                  build/obj/status_loop.o
usbDisableEndpointsI                              build/obj/usb.o
usbInit                                           build/obj/usb.o
                                                  build/obj/hal.o
usbInitEndpointI                                  build/obj/usb.o
                                                  build/obj/usbcfg.o
usbObjectInit                                     build/obj/usb.o
                                                  build/obj/usb_lld.o
usbPrepareQueuedReceive                           build/obj/usb.o
                                                  build/obj/serial_usb.o
usbPrepareQueuedTransmit                          build/obj/usb.o
                                                  build/obj/serial_usb.o
usbPrepareReceive                                 build/obj/usb.o
usbPrepareTransmit                                build/obj/usb.o
usbStallReceiveI                                  build/obj/usb.o
usbStallTransmitI                                 build/obj/usb.o
usbStart                                          build/obj/usb.o
                                                  build/obj/usbconsole.o
usbStartReceiveI                                  build/obj/usb.o
                                                  build/obj/serial_usb.o
usbStartTransmitI                                 build/obj/usb.o
                                                  build/obj/serial_usb.o
usbStop                                           build/obj/usb.o
usb_lld_clear_in                                  build/obj/usb_lld.o
                                                  build/obj/usb.o
usb_lld_clear_out                                 build/obj/usb_lld.o
                                                  build/obj/usb.o
usb_lld_disable_endpoints                         build/obj/usb_lld.o
                                                  build/obj/usb.o
usb_lld_get_status_in                             build/obj/usb_lld.o
                                                  build/obj/usb.o
usb_lld_get_status_out                            build/obj/usb_lld.o
                                                  build/obj/usb.o
usb_lld_init                                      build/obj/usb_lld.o
                                                  build/obj/usb.o
usb_lld_init_endpoint                             build/obj/usb_lld.o
                                                  build/obj/usb.o
usb_lld_prepare_receive                           build/obj/usb_lld.o
                                                  build/obj/usb.o
usb_lld_prepare_transmit                          build/obj/usb_lld.o
                                                  build/obj/usb.o
usb_lld_read_setup                                build/obj/usb_lld.o
                                                  build/obj/usb.o
usb_lld_reset                                     build/obj/usb_lld.o
                                                  build/obj/usb.o
usb_lld_set_address                               build/obj/usb_lld.o
                                                  build/obj/usb.o
usb_lld_stall_in                                  build/obj/usb_lld.o
                                                  build/obj/usb.o
usb_lld_stall_out                                 build/obj/usb_lld.o
                                                  build/obj/usb.o
usb_lld_start                                     build/obj/usb_lld.o
                                                  build/obj/usb.o
usb_lld_start_in                                  build/obj/usb_lld.o
                                                  build/obj/usb.o
usb_lld_start_out                                 build/obj/usb_lld.o
                                                  build/obj/usb.o
usb_lld_stop                                      build/obj/usb_lld.o
                                                  build/obj/usb.o
usb_serial_start                                  build/obj/usbconsole.o
                                                  build/obj/console_io.o
usbcfg                                            build/obj/usbcfg.o
                                                  build/obj/usbconsole.o
validateSecureLine                                build/obj/eficonsole_logic.o
vappendPrintf                                     build/obj/datalogging.o
                                                  build/obj/error_handling.o
vtable for chibios_rt::BaseThread                 build/obj/ch.o
vtable for chibios_rt::ThreadReference            build/obj/ch.o
vtlist                                            build/obj/chvt.o
                                                  build/obj/trigger_emulator_algo.o
                                                  build/obj/rfi_perftest.o
                                                  build/obj/main_trigger_callback.o
                                                  build/obj/ch.o
                                                  build/obj/pwm_generator_logic.o
                                                  build/obj/rpm_calculator.o
                                                  build/obj/trigger_central.o
                                                  build/obj/wave_chart.o
                                                  build/obj/map_multiplier_thread.o
                                                  build/obj/map_averaging.o
                                                  build/obj/error_handling.o
                                                  build/obj/flash_main.o
                                                  build/obj/idle_thread.o
                                                  build/obj/neo6m.o
                                                  build/obj/adc_inputs.o
                                                  build/obj/wave_analyzer.o
                                                  build/obj/tunerstudio.o
                                                  build/obj/status_loop.o
                                                  build/obj/chthreads.o
                                                  build/obj/chsys.o
warning                                           build/obj/error_handling.o
                                                  build/obj/engine_math.o
                                                  build/obj/trigger_decoder.o
                                                  build/obj/trigger_central.o
                                                  build/obj/thermistors.o
                                                  build/obj/interpolation.o
                                                  build/obj/fuel_math.o
warningEnabled                                    build/obj/status_loop.o
                                                  build/obj/error_handling.o
waveBufferReported                                build/obj/wave_analyzer.o
waveChart                                         build/obj/algo.o
                                                  build/obj/rpm_calculator.o
                                                  build/obj/wave_analyzer.o
waveState                                         build/obj/wave_math.o
weComplexInit                                     build/obj/pwm_generator_logic.o
                                                  build/obj/trigger_emulator_algo.o
                                                  build/obj/pwm_generator.o
writeToFlash                                      build/obj/flash_main.o
                                                  build/obj/settings.o
                                                  build/obj/tunerstudio.o
